(lp1
ccopy_reg
_reconstructor
p2
(cpredict.decisiontree
DecisionNode
p3
c__builtin__
object
p4
NtRp5
(dp6
S'left_node'
p7
g2
(g3
g4
NtRp8
(dp9
g7
g2
(cpredict.decisiontree
LeafDecisionNode
p10
g4
NtRp11
(dp12
S'leaf_value'
p13
F0
sbsS'split_value'
p14
F-0.81104394332433527
sS'split_dimension'
p15
S'y'
sS'right_node'
p16
g2
(g3
g4
NtRp17
(dp18
g7
g2
(g3
g4
NtRp19
(dp20
g7
g2
(g10
g4
NtRp21
(dp22
g13
F0
sbsg14
F-0.525223269871812
sg15
S'x'
sg16
g2
(g3
g4
NtRp23
(dp24
g7
g2
(g10
g4
NtRp25
(dp26
g13
F0
sbsg14
F-0.73534876429188856
sg15
S'y'
sg16
g2
(g10
g4
NtRp27
(dp28
g13
F1
sbsbsbsg14
F-0.72983496052889318
sg15
S'y'
sg16
g2
(g10
g4
NtRp29
(dp30
g13
F0
sbsbsbsg14
F-0.55613848479038852
sg15
S'y'
sg16
g2
(g3
g4
NtRp31
(dp32
g7
g2
(g3
g4
NtRp33
(dp34
g7
g2
(g3
g4
NtRp35
(dp36
g7
g2
(g3
g4
NtRp37
(dp38
g7
g2
(g10
g4
NtRp39
(dp40
g13
F0
sbsg14
F-0.83269177163612662
sg15
S'x'
sg16
g2
(g10
g4
NtRp41
(dp42
g13
F0.25
sbsbsg14
F-0.50058160477612068
sg15
S'y'
sg16
g2
(g3
g4
NtRp43
(dp44
g7
g2
(g3
g4
NtRp45
(dp46
g7
g2
(g3
g4
NtRp47
(dp48
g7
g2
(g10
g4
NtRp49
(dp50
g13
F0.75
sbsg14
F-0.43835985681369927
sg15
S'y'
sg16
g2
(g10
g4
NtRp51
(dp52
g13
F0
sbsbsg14
F-0.43449197256793282
sg15
S'y'
sg16
g2
(g10
g4
NtRp53
(dp54
g13
F1
sbsbsg14
F-0.40791940450301523
sg15
S'y'
sg16
g2
(g3
g4
NtRp55
(dp56
g7
g2
(g3
g4
NtRp57
(dp58
g7
g2
(g3
g4
NtRp59
(dp60
g7
g2
(g3
g4
NtRp61
(dp62
g7
g2
(g3
g4
NtRp63
(dp64
g7
g2
(g3
g4
NtRp65
(dp66
g7
g2
(g10
g4
NtRp67
(dp68
g13
F1
sbsg14
F-0.33193425809192334
sg15
S'y'
sg16
g2
(g10
g4
NtRp69
(dp70
g13
F0.5
sbsbsg14
F-0.2455678552169398
sg15
S'y'
sg16
g2
(g10
g4
NtRp71
(dp72
g13
F0
sbsbsg14
F-0.2387787081211985
sg15
S'y'
sg16
g2
(g10
g4
NtRp73
(dp74
g13
F1
sbsbsg14
Nsg15
S'x'
sg16
g2
(g10
g4
NtRp75
(dp76
g13
F0
sbsbsg14
F-0.18459209796258991
sg15
S'y'
sg16
g2
(g3
g4
NtRp77
(dp78
g7
g2
(g3
g4
NtRp79
(dp80
g7
g2
(g10
g4
NtRp81
(dp82
g13
F0
sbsg14
F-0.093541118262325806
sg15
S'y'
sg16
g2
(g10
g4
NtRp83
(dp84
g13
F0.25
sbsbsg14
F-0.001940701277559409
sg15
S'y'
sg16
g2
(g10
g4
NtRp85
(dp86
g13
F0
sbsbsbsg14
F-0.7844113536851447
sg15
S'x'
sg16
g2
(g3
g4
NtRp87
(dp88
g7
g2
(g3
g4
NtRp89
(dp90
g7
g2
(g3
g4
NtRp91
(dp92
g7
g2
(g10
g4
NtRp93
(dp94
g13
F0
sbsg14
F-0.31748839152106711
sg15
S'y'
sg16
g2
(g10
g4
NtRp95
(dp96
g13
F1
sbsbsg14
F-0.70823563025416236
sg15
S'x'
sg16
g2
(g10
g4
NtRp97
(dp98
g13
F1
sbsbsg14
F0.26437770383656334
sg15
S'x'
sg16
g2
(g10
g4
NtRp99
(dp100
g13
F0.5
sbsbsbsbsbsg14
F0.31073252241532057
sg15
S'x'
sg16
g2
(g3
g4
NtRp101
(dp102
g7
g2
(g10
g4
NtRp103
(dp104
g13
F0.25
sbsg14
F0.44204083949701989
sg15
S'x'
sg16
g2
(g10
g4
NtRp105
(dp106
g13
F0
sbsbsbsg14
F0.31921539511580521
sg15
S'y'
sg16
g2
(g3
g4
NtRp107
(dp108
g7
g2
(g3
g4
NtRp109
(dp110
g7
g2
(g3
g4
NtRp111
(dp112
g7
g2
(g10
g4
NtRp113
(dp114
g13
F0
sbsg14
F-0.43122350203900917
sg15
S'x'
sg16
g2
(g10
g4
NtRp115
(dp116
g13
F0.5
sbsbsg14
F0.49778538934352534
sg15
S'y'
sg16
g2
(g10
g4
NtRp117
(dp118
g13
F0
sbsbsg14
F0.22196047951416764
sg15
S'x'
sg16
g2
(g10
g4
NtRp119
(dp120
g13
F0
sbsbsbsbag2
(g3
g4
NtRp121
(dp122
g7
g2
(g3
g4
NtRp123
(dp124
g7
g2
(g10
g4
NtRp125
(dp126
g13
F0
sbsg14
F-0.75994326789195732
sg15
S'y'
sg16
g2
(g3
g4
NtRp127
(dp128
g7
g2
(g3
g4
NtRp129
(dp130
g7
g2
(g10
g4
NtRp131
(dp132
g13
F0
sbsg14
F-0.82638674989671923
sg15
S'x'
sg16
g2
(g3
g4
NtRp133
(dp134
g7
g2
(g10
g4
NtRp135
(dp136
g13
F0
sbsg14
F-0.73534876429188856
sg15
S'y'
sg16
g2
(g10
g4
NtRp137
(dp138
g13
F1
sbsbsbsg14
F-0.72983496052889318
sg15
S'y'
sg16
g2
(g10
g4
NtRp139
(dp140
g13
F0
sbsbsbsg14
F-0.52863766836348347
sg15
S'y'
sg16
g2
(g3
g4
NtRp141
(dp142
g7
g2
(g3
g4
NtRp143
(dp144
g7
g2
(g10
g4
NtRp145
(dp146
g13
F0
sbsg14
F-0.51743682154159076
sg15
S'y'
sg16
g2
(g3
g4
NtRp147
(dp148
g7
g2
(g3
g4
NtRp149
(dp150
g7
g2
(g3
g4
NtRp151
(dp152
g7
g2
(g3
g4
NtRp153
(dp154
g7
g2
(g3
g4
NtRp155
(dp156
g7
g2
(g3
g4
NtRp157
(dp158
g7
g2
(g3
g4
NtRp159
(dp160
g7
g2
(g3
g4
NtRp161
(dp162
g7
g2
(g10
g4
NtRp163
(dp164
g13
F0.5
sbsg14
F-0.31322227368403244
sg15
S'y'
sg16
g2
(g10
g4
NtRp165
(dp166
g13
F0
sbsbsg14
F-0.26789556201165698
sg15
S'y'
sg16
g2
(g10
g4
NtRp167
(dp168
g13
F1
sbsbsg14
F-0.2455678552169398
sg15
S'y'
sg16
g2
(g10
g4
NtRp169
(dp170
g13
F0
sbsbsg14
F-0.2387787081211985
sg15
S'y'
sg16
g2
(g10
g4
NtRp171
(dp172
g13
F1
sbsbsg14
Nsg15
S'x'
sg16
g2
(g10
g4
NtRp173
(dp174
g13
F0
sbsbsg14
F-0.18459209796258991
sg15
S'y'
sg16
g2
(g10
g4
NtRp175
(dp176
g13
F0
sbsbsg14
F-0.98959595132242884
sg15
S'x'
sg16
g2
(g3
g4
NtRp177
(dp178
g7
g2
(g10
g4
NtRp179
(dp180
g13
F0
sbsg14
F-0.87831504909186142
sg15
S'x'
sg16
g2
(g3
g4
NtRp181
(dp182
g7
g2
(g3
g4
NtRp183
(dp184
g7
g2
(g3
g4
NtRp185
(dp186
g7
g2
(g10
g4
NtRp187
(dp188
g13
F0
sbsg14
F-0.70823563025416236
sg15
S'x'
sg16
g2
(g10
g4
NtRp189
(dp190
g13
F1
sbsbsg14
F-0.30804222440978313
sg15
S'y'
sg16
g2
(g10
g4
NtRp191
(dp192
g13
F1
sbsbsg14
F0.2121238669701726
sg15
S'x'
sg16
g2
(g3
g4
NtRp193
(dp194
g7
g2
(g10
g4
NtRp195
(dp196
g13
F1
sbsg14
F0.26437770383656334
sg15
S'x'
sg16
g2
(g3
g4
NtRp197
(dp198
g7
g2
(g10
g4
NtRp199
(dp200
g13
F1
sbsg14
F-0.14543972510357595
sg15
S'y'
sg16
g2
(g10
g4
NtRp201
(dp202
g13
F0
sbsbsbsbsbsbsg14
F0.43632183646952161
sg15
S'x'
sg16
g2
(g10
g4
NtRp203
(dp204
g13
F0
sbsbsbsg14
F0.29455481060953836
sg15
S'y'
sg16
g2
(g3
g4
NtRp205
(dp206
g7
g2
(g3
g4
NtRp207
(dp208
g7
g2
(g3
g4
NtRp209
(dp210
g7
g2
(g3
g4
NtRp211
(dp212
g7
g2
(g3
g4
NtRp213
(dp214
g7
g2
(g3
g4
NtRp215
(dp216
g7
g2
(g3
g4
NtRp217
(dp218
g7
g2
(g3
g4
NtRp219
(dp220
g7
g2
(g10
g4
NtRp221
(dp222
g13
F0
sbsg14
F-1.0465222995149221
sg15
S'x'
sg16
g2
(g10
g4
NtRp223
(dp224
g13
F1
sbsbsg14
F0.31911473369122723
sg15
S'y'
sg16
g2
(g10
g4
NtRp225
(dp226
g13
F1
sbsbsg14
F0.31921539511580521
sg15
S'y'
sg16
g2
(g10
g4
NtRp227
(dp228
g13
F0
sbsbsg14
F0.37288613751680666
sg15
S'y'
sg16
g2
(g10
g4
NtRp229
(dp230
g13
F1
sbsbsg14
F0.37547643267317943
sg15
S'y'
sg16
g2
(g10
g4
NtRp231
(dp232
g13
F0
sbsbsg14
F0.44973656249013683
sg15
S'y'
sg16
g2
(g10
g4
NtRp233
(dp234
g13
F0.5
sbsbsg14
F0.094933463639929272
sg15
S'x'
sg16
g2
(g10
g4
NtRp235
(dp236
g13
F0
sbsbsg14
F0.45665103171269106
sg15
S'y'
sg16
g2
(g10
g4
NtRp237
(dp238
g13
F0
sbsbsbsbag2
(g3
g4
NtRp239
(dp240
g7
g2
(g10
g4
NtRp241
(dp242
g13
F0
sbsg14
F-0.76697191053117253
sg15
S'y'
sg16
g2
(g3
g4
NtRp243
(dp244
g7
g2
(g3
g4
NtRp245
(dp246
g7
g2
(g3
g4
NtRp247
(dp248
g7
g2
(g3
g4
NtRp249
(dp250
g7
g2
(g3
g4
NtRp251
(dp252
g7
g2
(g10
g4
NtRp253
(dp254
g13
F0
sbsg14
F-0.36332515940874011
sg15
S'y'
sg16
g2
(g3
g4
NtRp255
(dp256
g7
g2
(g10
g4
NtRp257
(dp258
g13
F1
sbsg14
F-0.33193425809192334
sg15
S'y'
sg16
g2
(g3
g4
NtRp259
(dp260
g7
g2
(g3
g4
NtRp261
(dp262
g7
g2
(g3
g4
NtRp263
(dp264
g7
g2
(g10
g4
NtRp265
(dp266
g13
F0
sbsg14
F-0.31462338262055756
sg15
S'y'
sg16
g2
(g10
g4
NtRp267
(dp268
g13
F0.5
sbsbsg14
F-0.2387787081211985
sg15
S'y'
sg16
g2
(g10
g4
NtRp269
(dp270
g13
F1
sbsbsg14
Nsg15
S'x'
sg16
g2
(g10
g4
NtRp271
(dp272
g13
F0
sbsbsbsbsg14
F-0.18459209796258991
sg15
S'y'
sg16
g2
(g10
g4
NtRp273
(dp274
g13
F0
sbsbsg14
F-0.83269177163612662
sg15
S'x'
sg16
g2
(g3
g4
NtRp275
(dp276
g7
g2
(g3
g4
NtRp277
(dp278
g7
g2
(g3
g4
NtRp279
(dp280
g7
g2
(g10
g4
NtRp281
(dp282
g13
F0
sbsg14
F-0.45585930680072861
sg15
S'x'
sg16
g2
(g10
g4
NtRp283
(dp284
g13
F1
sbsbsg14
F-0.38777710893655026
sg15
S'x'
sg16
g2
(g10
g4
NtRp285
(dp286
g13
F0
sbsbsg14
F-0.51790652368307422
sg15
S'y'
sg16
g2
(g3
g4
NtRp287
(dp288
g7
g2
(g3
g4
NtRp289
(dp290
g7
g2
(g3
g4
NtRp291
(dp292
g7
g2
(g10
g4
NtRp293
(dp294
g13
F1
sbsg14
F-0.74582139851372764
sg15
S'x'
sg16
g2
(g10
g4
NtRp295
(dp296
g13
F0
sbsbsg14
F-0.70823563025416236
sg15
S'x'
sg16
g2
(g3
g4
NtRp297
(dp298
g7
g2
(g10
g4
NtRp299
(dp300
g13
F1
sbsg14
F0.31921539511580521
sg15
S'y'
sg16
g2
(g10
g4
NtRp301
(dp302
g13
F0.5
sbsbsbsg14
F0.26437770383656334
sg15
S'x'
sg16
g2
(g3
g4
NtRp303
(dp304
g7
g2
(g10
g4
NtRp305
(dp306
g13
F1
sbsg14
F-0.14543972510357595
sg15
S'y'
sg16
g2
(g10
g4
NtRp307
(dp308
g13
F0
sbsbsbsbsbsg14
F0.3786417150015926
sg15
S'y'
sg16
g2
(g3
g4
NtRp309
(dp310
g7
g2
(g10
g4
NtRp311
(dp312
g13
F0
sbsg14
F-0.30186666434517528
sg15
S'x'
sg16
g2
(g3
g4
NtRp313
(dp314
g7
g2
(g3
g4
NtRp315
(dp316
g7
g2
(g10
g4
NtRp317
(dp318
g13
F0
sbsg14
F-0.27459090900817085
sg15
S'x'
sg16
g2
(g10
g4
NtRp319
(dp320
g13
F1
sbsbsg14
F-0.26802057157969683
sg15
S'x'
sg16
g2
(g10
g4
NtRp321
(dp322
g13
F0
sbsbsbsbsg14
F0.44204083949701989
sg15
S'x'
sg16
g2
(g10
g4
NtRp323
(dp324
g13
F0
sbsbsbag2
(g3
g4
NtRp325
(dp326
g7
g2
(g3
g4
NtRp327
(dp328
g7
g2
(g3
g4
NtRp329
(dp330
g7
g2
(g10
g4
NtRp331
(dp332
g13
F0
sbsg14
F-0.41608835587964244
sg15
S'x'
sg16
g2
(g3
g4
NtRp333
(dp334
g7
g2
(g10
g4
NtRp335
(dp336
g13
F0
sbsg14
F-0.75596144678424171
sg15
S'y'
sg16
g2
(g10
g4
NtRp337
(dp338
g13
F0.33333333333333331
sbsbsbsg14
F-0.61648872325289572
sg15
S'y'
sg16
g2
(g3
g4
NtRp339
(dp340
g7
g2
(g3
g4
NtRp341
(dp342
g7
g2
(g3
g4
NtRp343
(dp344
g7
g2
(g3
g4
NtRp345
(dp346
g7
g2
(g3
g4
NtRp347
(dp348
g7
g2
(g10
g4
NtRp349
(dp350
g13
F0
sbsg14
F-0.50058160477612068
sg15
S'y'
sg16
g2
(g3
g4
NtRp351
(dp352
g7
g2
(g3
g4
NtRp353
(dp354
g7
g2
(g3
g4
NtRp355
(dp356
g7
g2
(g10
g4
NtRp357
(dp358
g13
F1
sbsg14
F-0.33193425809192334
sg15
S'y'
sg16
g2
(g10
g4
NtRp359
(dp360
g13
F0.5
sbsbsg14
F-0.2455678552169398
sg15
S'y'
sg16
g2
(g10
g4
NtRp361
(dp362
g13
F0
sbsbsg14
F-0.2387787081211985
sg15
S'y'
sg16
g2
(g10
g4
NtRp363
(dp364
g13
F1
sbsbsbsg14
F-0.18459209796258991
sg15
S'y'
sg16
g2
(g10
g4
NtRp365
(dp366
g13
F0
sbsbsg14
Nsg15
S'x'
sg16
g2
(g10
g4
NtRp367
(dp368
g13
F0
sbsbsg14
F-0.7975258023599614
sg15
S'x'
sg16
g2
(g3
g4
NtRp369
(dp370
g7
g2
(g10
g4
NtRp371
(dp372
g13
F0.66666666666666663
sbsg14
F-0.78373623257343494
sg15
S'x'
sg16
g2
(g3
g4
NtRp373
(dp374
g7
g2
(g10
g4
NtRp375
(dp376
g13
F0
sbsg14
F-0.77040598460250997
sg15
S'x'
sg16
g2
(g3
g4
NtRp377
(dp378
g7
g2
(g10
g4
NtRp379
(dp380
g13
F1
sbsg14
F-0.76835352674224611
sg15
S'x'
sg16
g2
(g3
g4
NtRp381
(dp382
g7
g2
(g3
g4
NtRp383
(dp384
g7
g2
(g10
g4
NtRp385
(dp386
g13
F0
sbsg14
F-0.31748839152106711
sg15
S'y'
sg16
g2
(g10
g4
NtRp387
(dp388
g13
F1
sbsbsg14
F0.16979807948822767
sg15
S'y'
sg16
g2
(g10
g4
NtRp389
(dp390
g13
F0
sbsbsbsbsbsbsg14
F-0.56439974823104677
sg15
S'x'
sg16
g2
(g3
g4
NtRp391
(dp392
g7
g2
(g3
g4
NtRp393
(dp394
g7
g2
(g3
g4
NtRp395
(dp396
g7
g2
(g10
g4
NtRp397
(dp398
g13
F1
sbsg14
F-0.29640477294015399
sg15
S'x'
sg16
g2
(g10
g4
NtRp399
(dp400
g13
F0
sbsbsg14
F-0.50197163593519312
sg15
S'y'
sg16
g2
(g3
g4
NtRp401
(dp402
g7
g2
(g10
g4
NtRp403
(dp404
g13
F1
sbsg14
F0.2121238669701726
sg15
S'x'
sg16
g2
(g3
g4
NtRp405
(dp406
g7
g2
(g10
g4
NtRp407
(dp408
g13
F1
sbsg14
F0.015472705653512886
sg15
S'y'
sg16
g2
(g10
g4
NtRp409
(dp410
g13
F0
sbsbsbsbsg14
F0.37547643267317943
sg15
S'y'
sg16
g2
(g3
g4
NtRp411
(dp412
g7
g2
(g3
g4
NtRp413
(dp414
g7
g2
(g10
g4
NtRp415
(dp416
g13
F0.5
sbsg14
F0.45507281866429006
sg15
S'y'
sg16
g2
(g10
g4
NtRp417
(dp418
g13
F0
sbsbsg14
F-0.26802057157969683
sg15
S'x'
sg16
g2
(g10
g4
NtRp419
(dp420
g13
F0
sbsbsbsbsbsg14
F0.31987464214897665
sg15
S'x'
sg16
g2
(g3
g4
NtRp421
(dp422
g7
g2
(g3
g4
NtRp423
(dp424
g7
g2
(g10
g4
NtRp425
(dp426
g13
F0
sbsg14
F-0.34140911092254367
sg15
S'y'
sg16
g2
(g3
g4
NtRp427
(dp428
g7
g2
(g10
g4
NtRp429
(dp430
g13
F0
sbsg14
F-0.27862477715362521
sg15
S'y'
sg16
g2
(g10
g4
NtRp431
(dp432
g13
F0.25
sbsbsbsg14
F-0.25448934212477914
sg15
S'y'
sg16
g2
(g10
g4
NtRp433
(dp434
g13
F0
sbsbsbag2
(g3
g4
NtRp435
(dp436
g7
g2
(g3
g4
NtRp437
(dp438
g7
g2
(g3
g4
NtRp439
(dp440
g7
g2
(g10
g4
NtRp441
(dp442
g13
F0
sbsg14
F-0.34733818826529106
sg15
S'y'
sg16
g2
(g3
g4
NtRp443
(dp444
g7
g2
(g3
g4
NtRp445
(dp446
g7
g2
(g10
g4
NtRp447
(dp448
g13
F0.5
sbsg14
F-0.31322227368403244
sg15
S'y'
sg16
g2
(g3
g4
NtRp449
(dp450
g7
g2
(g3
g4
NtRp451
(dp452
g7
g2
(g10
g4
NtRp453
(dp454
g13
F0.5
sbsg14
Nsg15
S'x'
sg16
g2
(g10
g4
NtRp455
(dp456
g13
F0
sbsbsg14
F-0.18459209796258991
sg15
S'y'
sg16
g2
(g10
g4
NtRp457
(dp458
g13
F0
sbsbsbsg14
F-0.82242024356403221
sg15
S'x'
sg16
g2
(g3
g4
NtRp459
(dp460
g7
g2
(g10
g4
NtRp461
(dp462
g13
F0.5
sbsg14
F-0.78373623257343494
sg15
S'x'
sg16
g2
(g3
g4
NtRp463
(dp464
g7
g2
(g3
g4
NtRp465
(dp466
g7
g2
(g3
g4
NtRp467
(dp468
g7
g2
(g10
g4
NtRp469
(dp470
g13
F0.66666666666666663
sbsg14
F0.16979807948822767
sg15
S'y'
sg16
g2
(g10
g4
NtRp471
(dp472
g13
F0
sbsbsg14
F-0.65543906663347329
sg15
S'x'
sg16
g2
(g10
g4
NtRp473
(dp474
g13
F1
sbsbsg14
F-0.65423859949522356
sg15
S'x'
sg16
g2
(g10
g4
NtRp475
(dp476
g13
F0
sbsbsbsbsbsg14
F-0.60722847172775474
sg15
S'x'
sg16
g2
(g3
g4
NtRp477
(dp478
g7
g2
(g3
g4
NtRp479
(dp480
g7
g2
(g3
g4
NtRp481
(dp482
g7
g2
(g3
g4
NtRp483
(dp484
g7
g2
(g10
g4
NtRp485
(dp486
g13
F0
sbsg14
F-0.78371209382454143
sg15
S'y'
sg16
g2
(g10
g4
NtRp487
(dp488
g13
F1
sbsbsg14
F-0.48282919408366265
sg15
S'x'
sg16
g2
(g10
g4
NtRp489
(dp490
g13
F0
sbsbsg14
F0.22022344640722391
sg15
S'y'
sg16
g2
(g10
g4
NtRp491
(dp492
g13
F0
sbsbsg14
F-0.45310945615532772
sg15
S'x'
sg16
g2
(g3
g4
NtRp493
(dp494
g7
g2
(g3
g4
NtRp495
(dp496
g7
g2
(g3
g4
NtRp497
(dp498
g7
g2
(g10
g4
NtRp499
(dp500
g13
F0
sbsg14
F-0.74169687848698995
sg15
S'y'
sg16
g2
(g3
g4
NtRp501
(dp502
g7
g2
(g10
g4
NtRp503
(dp504
g13
F1
sbsg14
F-0.7317342781318299
sg15
S'y'
sg16
g2
(g10
g4
NtRp505
(dp506
g13
F0
sbsbsbsg14
F-0.51790652368307422
sg15
S'y'
sg16
g2
(g3
g4
NtRp507
(dp508
g7
g2
(g10
g4
NtRp509
(dp510
g13
F1
sbsg14
F0.25399043319974535
sg15
S'x'
sg16
g2
(g3
g4
NtRp511
(dp512
g7
g2
(g10
g4
NtRp513
(dp514
g13
F0.33333333333333331
sbsg14
F0.28464525163668553
sg15
S'x'
sg16
g2
(g10
g4
NtRp515
(dp516
g13
F1
sbsbsbsbsg14
F0.30444199660335558
sg15
S'y'
sg16
g2
(g3
g4
NtRp517
(dp518
g7
g2
(g10
g4
NtRp519
(dp520
g13
F1
sbsg14
F0.31921539511580521
sg15
S'y'
sg16
g2
(g3
g4
NtRp521
(dp522
g7
g2
(g3
g4
NtRp523
(dp524
g7
g2
(g3
g4
NtRp525
(dp526
g7
g2
(g3
g4
NtRp527
(dp528
g7
g2
(g10
g4
NtRp529
(dp530
g13
F0.33333333333333331
sbsg14
F0.45507281866429006
sg15
S'y'
sg16
g2
(g10
g4
NtRp531
(dp532
g13
F0
sbsbsg14
F0.087597574614866058
sg15
S'x'
sg16
g2
(g10
g4
NtRp533
(dp534
g13
F1
sbsbsg14
F0.61799987559130765
sg15
S'y'
sg16
g2
(g10
g4
NtRp535
(dp536
g13
F0
sbsbsg14
F0.098039041075185462
sg15
S'x'
sg16
g2
(g10
g4
NtRp537
(dp538
g13
F0
sbsbsbsbsbsbsg14
F0.31987464214897665
sg15
S'x'
sg16
g2
(g3
g4
NtRp539
(dp540
g7
g2
(g3
g4
NtRp541
(dp542
g7
g2
(g10
g4
NtRp543
(dp544
g13
F0
sbsg14
F0.40909399732119667
sg15
S'x'
sg16
g2
(g3
g4
NtRp545
(dp546
g7
g2
(g3
g4
NtRp547
(dp548
g7
g2
(g10
g4
NtRp549
(dp550
g13
F1
sbsg14
F0.43611590117424015
sg15
S'x'
sg16
g2
(g10
g4
NtRp551
(dp552
g13
F0
sbsbsg14
F-0.26623522278699951
sg15
S'y'
sg16
g2
(g10
g4
NtRp553
(dp554
g13
F0
sbsbsbsg14
F0.50000351435247303
sg15
S'x'
sg16
g2
(g10
g4
NtRp555
(dp556
g13
F0
sbsbsbag2
(g3
g4
NtRp557
(dp558
g7
g2
(g3
g4
NtRp559
(dp560
g7
g2
(g10
g4
NtRp561
(dp562
g13
F0
sbsg14
F-0.73419221392083278
sg15
S'y'
sg16
g2
(g3
g4
NtRp563
(dp564
g7
g2
(g3
g4
NtRp565
(dp566
g7
g2
(g10
g4
NtRp567
(dp568
g13
F0
sbsg14
F-0.45585930680072861
sg15
S'x'
sg16
g2
(g3
g4
NtRp569
(dp570
g7
g2
(g10
g4
NtRp571
(dp572
g13
F1
sbsg14
F-0.29640477294015399
sg15
S'x'
sg16
g2
(g10
g4
NtRp573
(dp574
g13
F0.25
sbsbsbsg14
F0.047660436684024976
sg15
S'x'
sg16
g2
(g10
g4
NtRp575
(dp576
g13
F0
sbsbsbsg14
F-0.4639561329113242
sg15
S'y'
sg16
g2
(g3
g4
NtRp577
(dp578
g7
g2
(g3
g4
NtRp579
(dp580
g7
g2
(g3
g4
NtRp581
(dp582
g7
g2
(g3
g4
NtRp583
(dp584
g7
g2
(g3
g4
NtRp585
(dp586
g7
g2
(g3
g4
NtRp587
(dp588
g7
g2
(g3
g4
NtRp589
(dp590
g7
g2
(g3
g4
NtRp591
(dp592
g7
g2
(g10
g4
NtRp593
(dp594
g13
F1
sbsg14
F-0.33193425809192334
sg15
S'y'
sg16
g2
(g3
g4
NtRp595
(dp596
g7
g2
(g10
g4
NtRp597
(dp598
g13
F0.5
sbsg14
F-0.2455678552169398
sg15
S'y'
sg16
g2
(g10
g4
NtRp599
(dp600
g13
F0
sbsbsbsg14
F-0.2387787081211985
sg15
S'y'
sg16
g2
(g10
g4
NtRp601
(dp602
g13
F1
sbsbsg14
F-0.18459209796258991
sg15
S'y'
sg16
g2
(g10
g4
NtRp603
(dp604
g13
F0
sbsbsg14
Nsg15
S'x'
sg16
g2
(g3
g4
NtRp605
(dp606
g7
g2
(g3
g4
NtRp607
(dp608
g7
g2
(g10
g4
NtRp609
(dp610
g13
F0
sbsg14
F-0.093541118262325806
sg15
S'y'
sg16
g2
(g10
g4
NtRp611
(dp612
g13
F1
sbsbsg14
F-0.70823563025416236
sg15
S'x'
sg16
g2
(g10
g4
NtRp613
(dp614
g13
F1
sbsbsbsg14
F-0.65475515069743251
sg15
S'x'
sg16
g2
(g10
g4
NtRp615
(dp616
g13
F1
sbsbsg14
F-0.032123204759161528
sg15
S'y'
sg16
g2
(g3
g4
NtRp617
(dp618
g7
g2
(g3
g4
NtRp619
(dp620
g7
g2
(g3
g4
NtRp621
(dp622
g7
g2
(g3
g4
NtRp623
(dp624
g7
g2
(g10
g4
NtRp625
(dp626
g13
F0
sbsg14
F-0.012270941859678253
sg15
S'y'
sg16
g2
(g3
g4
NtRp627
(dp628
g7
g2
(g10
g4
NtRp629
(dp630
g13
F1
sbsg14
F-0.003968679165140987
sg15
S'y'
sg16
g2
(g3
g4
NtRp631
(dp632
g7
g2
(g10
g4
NtRp633
(dp634
g13
F0
sbsg14
F-1.4397526828055014
sg15
S'x'
sg16
g2
(g10
g4
NtRp635
(dp636
g13
F1
sbsbsbsbsg14
F0.073757854074751439
sg15
S'y'
sg16
g2
(g10
g4
NtRp637
(dp638
g13
F0
sbsbsg14
F0.14053565166158855
sg15
S'y'
sg16
g2
(g3
g4
NtRp639
(dp640
g7
g2
(g3
g4
NtRp641
(dp642
g7
g2
(g3
g4
NtRp643
(dp644
g7
g2
(g10
g4
NtRp645
(dp646
g13
F0
sbsg14
F-1.701012646431447
sg15
S'x'
sg16
g2
(g10
g4
NtRp647
(dp648
g13
F1
sbsbsg14
F0.19502536904143497
sg15
S'y'
sg16
g2
(g10
g4
NtRp649
(dp650
g13
F1
sbsbsg14
F0.22022344640722391
sg15
S'y'
sg16
g2
(g10
g4
NtRp651
(dp652
g13
F0.33333333333333331
sbsbsbsg14
F0.26056210330124374
sg15
S'y'
sg16
g2
(g3
g4
NtRp653
(dp654
g7
g2
(g10
g4
NtRp655
(dp656
g13
F0
sbsg14
F0.2919421211806581
sg15
S'y'
sg16
g2
(g3
g4
NtRp657
(dp658
g7
g2
(g10
g4
NtRp659
(dp660
g13
F1
sbsg14
F0.29455481060953836
sg15
S'y'
sg16
g2
(g3
g4
NtRp661
(dp662
g7
g2
(g3
g4
NtRp663
(dp664
g7
g2
(g3
g4
NtRp665
(dp666
g7
g2
(g3
g4
NtRp667
(dp668
g7
g2
(g10
g4
NtRp669
(dp670
g13
F0
sbsg14
F-1.0465222995149221
sg15
S'x'
sg16
g2
(g10
g4
NtRp671
(dp672
g13
F1
sbsbsg14
F0.31911473369122723
sg15
S'y'
sg16
g2
(g10
g4
NtRp673
(dp674
g13
F1
sbsbsg14
F0.31921539511580521
sg15
S'y'
sg16
g2
(g10
g4
NtRp675
(dp676
g13
F0
sbsbsg14
F0.37288613751680666
sg15
S'y'
sg16
g2
(g10
g4
NtRp677
(dp678
g13
F0.5
sbsbsbsbsbsbsg14
F0.40946466828761352
sg15
S'y'
sg16
g2
(g3
g4
NtRp679
(dp680
g7
g2
(g3
g4
NtRp681
(dp682
g7
g2
(g10
g4
NtRp683
(dp684
g13
F0
sbsg14
F-0.43122350203900917
sg15
S'x'
sg16
g2
(g10
g4
NtRp685
(dp686
g13
F0.33333333333333331
sbsbsg14
F0.45507281866429006
sg15
S'y'
sg16
g2
(g10
g4
NtRp687
(dp688
g13
F0
sbsbsbsg14
F0.31987464214897665
sg15
S'x'
sg16
g2
(g3
g4
NtRp689
(dp690
g7
g2
(g3
g4
NtRp691
(dp692
g7
g2
(g3
g4
NtRp693
(dp694
g7
g2
(g10
g4
NtRp695
(dp696
g13
F0
sbsg14
F0.41881881722202285
sg15
S'x'
sg16
g2
(g10
g4
NtRp697
(dp698
g13
F1
sbsbsg14
F0.43611590117424015
sg15
S'x'
sg16
g2
(g10
g4
NtRp699
(dp700
g13
F0
sbsbsg14
F0.53984443515374991
sg15
S'x'
sg16
g2
(g10
g4
NtRp701
(dp702
g13
F0
sbsbsbsbag2
(g3
g4
NtRp703
(dp704
g7
g2
(g3
g4
NtRp705
(dp706
g7
g2
(g3
g4
NtRp707
(dp708
g7
g2
(g10
g4
NtRp709
(dp710
g13
F0
sbsg14
F-0.45585930680072861
sg15
S'x'
sg16
g2
(g3
g4
NtRp711
(dp712
g7
g2
(g10
g4
NtRp713
(dp714
g13
F0
sbsg14
F-1.1731770802068935
sg15
S'y'
sg16
g2
(g10
g4
NtRp715
(dp716
g13
F1
sbsbsbsg14
F-0.38444525155307119
sg15
S'x'
sg16
g2
(g10
g4
NtRp717
(dp718
g13
F0
sbsbsg14
F-0.66970746502918566
sg15
S'y'
sg16
g2
(g3
g4
NtRp719
(dp720
g7
g2
(g3
g4
NtRp721
(dp722
g7
g2
(g10
g4
NtRp723
(dp724
g13
F0
sbsg14
F-0.50953241555756268
sg15
S'y'
sg16
g2
(g3
g4
NtRp725
(dp726
g7
g2
(g3
g4
NtRp727
(dp728
g7
g2
(g3
g4
NtRp729
(dp730
g7
g2
(g3
g4
NtRp731
(dp732
g7
g2
(g3
g4
NtRp733
(dp734
g7
g2
(g10
g4
NtRp735
(dp736
g13
F0
sbsg14
F-1.8854591531772118
sg15
S'x'
sg16
g2
(g10
g4
NtRp737
(dp738
g13
F1
sbsbsg14
F0.054221070855285269
sg15
S'x'
sg16
g2
(g10
g4
NtRp739
(dp740
g13
F0
sbsbsg14
F-0.43296291197456593
sg15
S'y'
sg16
g2
(g10
g4
NtRp741
(dp742
g13
F0
sbsbsg14
F-0.42569520392028881
sg15
S'y'
sg16
g2
(g3
g4
NtRp743
(dp744
g7
g2
(g3
g4
NtRp745
(dp746
g7
g2
(g10
g4
NtRp747
(dp748
g13
F0
sbsg14
F-1.7352561467544096
sg15
S'x'
sg16
g2
(g10
g4
NtRp749
(dp750
g13
F1
sbsbsg14
F0.16618485280648754
sg15
S'x'
sg16
g2
(g10
g4
NtRp751
(dp752
g13
F0
sbsbsbsg14
F-0.39180516720135383
sg15
S'y'
sg16
g2
(g3
g4
NtRp753
(dp754
g7
g2
(g3
g4
NtRp755
(dp756
g7
g2
(g3
g4
NtRp757
(dp758
g7
g2
(g3
g4
NtRp759
(dp760
g7
g2
(g10
g4
NtRp761
(dp762
g13
F0
sbsg14
F-0.38411828889055677
sg15
S'y'
sg16
g2
(g3
g4
NtRp763
(dp764
g7
g2
(g10
g4
NtRp765
(dp766
g13
F0.66666666666666663
sbsg14
F-0.36359075777183625
sg15
S'y'
sg16
g2
(g10
g4
NtRp767
(dp768
g13
F0
sbsbsbsg14
F0.28466730639834115
sg15
S'x'
sg16
g2
(g10
g4
NtRp769
(dp770
g13
F0
sbsbsg14
F-0.34140911092254367
sg15
S'y'
sg16
g2
(g10
g4
NtRp771
(dp772
g13
F1
sbsbsg14
F-0.33563035734179447
sg15
S'y'
sg16
g2
(g3
g4
NtRp773
(dp774
g7
g2
(g3
g4
NtRp775
(dp776
g7
g2
(g3
g4
NtRp777
(dp778
g7
g2
(g10
g4
NtRp779
(dp780
g13
F1
sbsg14
F-0.33193425809192334
sg15
S'y'
sg16
g2
(g3
g4
NtRp781
(dp782
g7
g2
(g3
g4
NtRp783
(dp784
g7
g2
(g3
g4
NtRp785
(dp786
g7
g2
(g10
g4
NtRp787
(dp788
g13
F0
sbsg14
F-0.31462338262055756
sg15
S'y'
sg16
g2
(g3
g4
NtRp789
(dp790
g7
g2
(g10
g4
NtRp791
(dp792
g13
F0.5
sbsg14
F-0.2387787081211985
sg15
S'y'
sg16
g2
(g10
g4
NtRp793
(dp794
g13
F1
sbsbsbsg14
F-0.18459209796258991
sg15
S'y'
sg16
g2
(g10
g4
NtRp795
(dp796
g13
F0
sbsbsg14
Nsg15
S'x'
sg16
g2
(g10
g4
NtRp797
(dp798
g13
F0
sbsbsbsg14
F-1.107933743690166
sg15
S'x'
sg16
g2
(g3
g4
NtRp799
(dp800
g7
g2
(g3
g4
NtRp801
(dp802
g7
g2
(g3
g4
NtRp803
(dp804
g7
g2
(g10
g4
NtRp805
(dp806
g13
F0
sbsg14
F-0.70823563025416236
sg15
S'x'
sg16
g2
(g10
g4
NtRp807
(dp808
g13
F1
sbsbsg14
F-0.10011198880936645
sg15
S'y'
sg16
g2
(g10
g4
NtRp809
(dp810
g13
F1
sbsbsg14
F0.25399043319974535
sg15
S'x'
sg16
g2
(g3
g4
NtRp811
(dp812
g7
g2
(g3
g4
NtRp813
(dp814
g7
g2
(g10
g4
NtRp815
(dp816
g13
F0
sbsg14
F0.28464525163668553
sg15
S'x'
sg16
g2
(g10
g4
NtRp817
(dp818
g13
F0.66666666666666663
sbsbsg14
F0.43611590117424015
sg15
S'x'
sg16
g2
(g10
g4
NtRp819
(dp820
g13
F0
sbsbsbsbsg14
F0.78291299308233553
sg15
S'x'
sg16
g2
(g10
g4
NtRp821
(dp822
g13
F0
sbsbsbsbsbsg14
F0.24359568111608132
sg15
S'y'
sg16
g2
(g3
g4
NtRp823
(dp824
g7
g2
(g3
g4
NtRp825
(dp826
g7
g2
(g3
g4
NtRp827
(dp828
g7
g2
(g3
g4
NtRp829
(dp830
g7
g2
(g10
g4
NtRp831
(dp832
g13
F0
sbsg14
F-1.0465222995149221
sg15
S'x'
sg16
g2
(g10
g4
NtRp833
(dp834
g13
F1
sbsbsg14
F0.31921539511580521
sg15
S'y'
sg16
g2
(g3
g4
NtRp835
(dp836
g7
g2
(g10
g4
NtRp837
(dp838
g13
F0
sbsg14
F0.37288613751680666
sg15
S'y'
sg16
g2
(g10
g4
NtRp839
(dp840
g13
F0.33333333333333331
sbsbsbsg14
F0.094933463639929272
sg15
S'x'
sg16
g2
(g10
g4
NtRp841
(dp842
g13
F0
sbsbsg14
F0.42295832780133491
sg15
S'y'
sg16
g2
(g3
g4
NtRp843
(dp844
g7
g2
(g3
g4
NtRp845
(dp846
g7
g2
(g10
g4
NtRp847
(dp848
g13
F0
sbsg14
F0.45142647138793679
sg15
S'y'
sg16
g2
(g3
g4
NtRp849
(dp850
g7
g2
(g10
g4
NtRp851
(dp852
g13
F1
sbsg14
F0.45507281866429006
sg15
S'y'
sg16
g2
(g10
g4
NtRp853
(dp854
g13
F0
sbsbsbsg14
F0.49331163806788947
sg15
S'y'
sg16
g2
(g10
g4
NtRp855
(dp856
g13
F0
sbsbsbsbsbag2
(g3
g4
NtRp857
(dp858
g7
g2
(g3
g4
NtRp859
(dp860
g7
g2
(g3
g4
NtRp861
(dp862
g7
g2
(g3
g4
NtRp863
(dp864
g7
g2
(g3
g4
NtRp865
(dp866
g7
g2
(g10
g4
NtRp867
(dp868
g13
F0
sbsg14
F-0.45816160635860204
sg15
S'y'
sg16
g2
(g3
g4
NtRp869
(dp870
g7
g2
(g3
g4
NtRp871
(dp872
g7
g2
(g3
g4
NtRp873
(dp874
g7
g2
(g3
g4
NtRp875
(dp876
g7
g2
(g10
g4
NtRp877
(dp878
g13
F1
sbsg14
F-0.33193425809192334
sg15
S'y'
sg16
g2
(g3
g4
NtRp879
(dp880
g7
g2
(g10
g4
NtRp881
(dp882
g13
F0.5
sbsg14
F-0.2455678552169398
sg15
S'y'
sg16
g2
(g10
g4
NtRp883
(dp884
g13
F0
sbsbsbsg14
F-0.2387787081211985
sg15
S'y'
sg16
g2
(g10
g4
NtRp885
(dp886
g13
F1
sbsbsg14
Nsg15
S'x'
sg16
g2
(g10
g4
NtRp887
(dp888
g13
F0
sbsbsg14
F-0.17802348511929589
sg15
S'y'
sg16
g2
(g10
g4
NtRp889
(dp890
g13
F0
sbsbsbsg14
F-0.81157418703311901
sg15
S'x'
sg16
g2
(g3
g4
NtRp891
(dp892
g7
g2
(g10
g4
NtRp893
(dp894
g13
F0
sbsg14
F-0.31748839152106711
sg15
S'y'
sg16
g2
(g3
g4
NtRp895
(dp896
g7
g2
(g3
g4
NtRp897
(dp898
g7
g2
(g10
g4
NtRp899
(dp900
g13
F1
sbsg14
F0.16979807948822767
sg15
S'y'
sg16
g2
(g10
g4
NtRp901
(dp902
g13
F0
sbsbsg14
F-0.58452977672852979
sg15
S'x'
sg16
g2
(g10
g4
NtRp903
(dp904
g13
F0
sbsbsbsbsg14
F-0.57112206913155061
sg15
S'x'
sg16
g2
(g3
g4
NtRp905
(dp906
g7
g2
(g3
g4
NtRp907
(dp908
g7
g2
(g3
g4
NtRp909
(dp910
g7
g2
(g10
g4
NtRp911
(dp912
g13
F0
sbsg14
F-0.78371209382454143
sg15
S'y'
sg16
g2
(g10
g4
NtRp913
(dp914
g13
F0.5
sbsbsg14
F-0.38777710893655026
sg15
S'x'
sg16
g2
(g10
g4
NtRp915
(dp916
g13
F0
sbsbsg14
F-0.51790652368307422
sg15
S'y'
sg16
g2
(g3
g4
NtRp917
(dp918
g7
g2
(g3
g4
NtRp919
(dp920
g7
g2
(g3
g4
NtRp921
(dp922
g7
g2
(g10
g4
NtRp923
(dp924
g13
F1
sbsg14
F0.22022344640722391
sg15
S'y'
sg16
g2
(g10
g4
NtRp925
(dp926
g13
F0
sbsbsg14
F-0.4252807516314876
sg15
S'x'
sg16
g2
(g3
g4
NtRp927
(dp928
g7
g2
(g10
g4
NtRp929
(dp930
g13
F1
sbsg14
F0.31921539511580521
sg15
S'y'
sg16
g2
(g10
g4
NtRp931
(dp932
g13
F0.66666666666666663
sbsbsbsg14
F0.18471432446111535
sg15
S'x'
sg16
g2
(g3
g4
NtRp933
(dp934
g7
g2
(g10
g4
NtRp935
(dp936
g13
F1
sbsg14
F0.015472705653512886
sg15
S'y'
sg16
g2
(g10
g4
NtRp937
(dp938
g13
F0
sbsbsbsbsbsg14
F0.49331163806788947
sg15
S'y'
sg16
g2
(g10
g4
NtRp939
(dp940
g13
F0
sbsbsg14
F0.33760820402910863
sg15
S'x'
sg16
g2
(g3
g4
NtRp941
(dp942
g7
g2
(g3
g4
NtRp943
(dp944
g7
g2
(g3
g4
NtRp945
(dp946
g7
g2
(g3
g4
NtRp947
(dp948
g7
g2
(g10
g4
NtRp949
(dp950
g13
F0
sbsg14
F0.40635016081880648
sg15
S'x'
sg16
g2
(g10
g4
NtRp951
(dp952
g13
F1
sbsbsg14
F0.43611590117424015
sg15
S'x'
sg16
g2
(g10
g4
NtRp953
(dp954
g13
F0
sbsbsg14
F0.53177522529599752
sg15
S'x'
sg16
g2
(g10
g4
NtRp955
(dp956
g13
F0
sbsbsg14
F-0.22329953859129725
sg15
S'y'
sg16
g2
(g10
g4
NtRp957
(dp958
g13
F0
sbsbsbag2
(g3
g4
NtRp959
(dp960
g7
g2
(g3
g4
NtRp961
(dp962
g7
g2
(g3
g4
NtRp963
(dp964
g7
g2
(g10
g4
NtRp965
(dp966
g13
F0
sbsg14
F-0.76843964447200763
sg15
S'y'
sg16
g2
(g3
g4
NtRp967
(dp968
g7
g2
(g10
g4
NtRp969
(dp970
g13
F0
sbsg14
F-0.45585930680072861
sg15
S'x'
sg16
g2
(g3
g4
NtRp971
(dp972
g7
g2
(g10
g4
NtRp973
(dp974
g13
F0
sbsg14
F-0.74169687848698995
sg15
S'y'
sg16
g2
(g10
g4
NtRp975
(dp976
g13
F0.33333333333333331
sbsbsbsbsg14
F-0.58873174711116372
sg15
S'y'
sg16
g2
(g3
g4
NtRp977
(dp978
g7
g2
(g3
g4
NtRp979
(dp980
g7
g2
(g10
g4
NtRp981
(dp982
g13
F0
sbsg14
F-0.51743682154159076
sg15
S'y'
sg16
g2
(g3
g4
NtRp983
(dp984
g7
g2
(g3
g4
NtRp985
(dp986
g7
g2
(g10
g4
NtRp987
(dp988
g13
F0
sbsg14
F-1.8854591531772118
sg15
S'x'
sg16
g2
(g10
g4
NtRp989
(dp990
g13
F1
sbsbsg14
F-0.40791940450301523
sg15
S'y'
sg16
g2
(g3
g4
NtRp991
(dp992
g7
g2
(g3
g4
NtRp993
(dp994
g7
g2
(g3
g4
NtRp995
(dp996
g7
g2
(g3
g4
NtRp997
(dp998
g7
g2
(g3
g4
NtRp999
(dp1000
g7
g2
(g10
g4
NtRp1001
(dp1002
g13
F1
sbsg14
F-0.33193425809192334
sg15
S'y'
sg16
g2
(g3
g4
NtRp1003
(dp1004
g7
g2
(g10
g4
NtRp1005
(dp1006
g13
F0
sbsg14
F-0.31462338262055756
sg15
S'y'
sg16
g2
(g10
g4
NtRp1007
(dp1008
g13
F0.5
sbsbsbsg14
F-0.2387787081211985
sg15
S'y'
sg16
g2
(g10
g4
NtRp1009
(dp1010
g13
F1
sbsbsg14
F-0.18459209796258991
sg15
S'y'
sg16
g2
(g10
g4
NtRp1011
(dp1012
g13
F0
sbsbsg14
Nsg15
S'x'
sg16
g2
(g10
g4
NtRp1013
(dp1014
g13
F0
sbsbsg14
F-0.87831504909186142
sg15
S'x'
sg16
g2
(g3
g4
NtRp1015
(dp1016
g7
g2
(g3
g4
NtRp1017
(dp1018
g7
g2
(g3
g4
NtRp1019
(dp1020
g7
g2
(g10
g4
NtRp1021
(dp1022
g13
F0
sbsg14
F-0.70823563025416236
sg15
S'x'
sg16
g2
(g10
g4
NtRp1023
(dp1024
g13
F1
sbsbsg14
F-0.30377695491861045
sg15
S'y'
sg16
g2
(g3
g4
NtRp1025
(dp1026
g7
g2
(g10
g4
NtRp1027
(dp1028
g13
F1
sbsg14
F0.25399043319974535
sg15
S'x'
sg16
g2
(g10
g4
NtRp1029
(dp1030
g13
F0.5
sbsbsbsg14
F0.20256772147393232
sg15
S'y'
sg16
g2
(g10
g4
NtRp1031
(dp1032
g13
F0.66666666666666663
sbsbsbsbsbsg14
F0.26056210330124374
sg15
S'y'
sg16
g2
(g3
g4
NtRp1033
(dp1034
g7
g2
(g3
g4
NtRp1035
(dp1036
g7
g2
(g10
g4
NtRp1037
(dp1038
g13
F0
sbsg14
F0.2919421211806581
sg15
S'y'
sg16
g2
(g3
g4
NtRp1039
(dp1040
g7
g2
(g10
g4
NtRp1041
(dp1042
g13
F1
sbsg14
F0.29455481060953836
sg15
S'y'
sg16
g2
(g3
g4
NtRp1043
(dp1044
g7
g2
(g10
g4
NtRp1045
(dp1046
g13
F0
sbsg14
F-0.57112206913155061
sg15
S'x'
sg16
g2
(g3
g4
NtRp1047
(dp1048
g7
g2
(g10
g4
NtRp1049
(dp1050
g13
F1
sbsg14
F0.31921539511580521
sg15
S'y'
sg16
g2
(g10
g4
NtRp1051
(dp1052
g13
F0.33333333333333331
sbsbsbsbsbsg14
F0.4316041414103986
sg15
S'y'
sg16
g2
(g3
g4
NtRp1053
(dp1054
g7
g2
(g10
g4
NtRp1055
(dp1056
g13
F0
sbsg14
F-0.29353269765430712
sg15
S'x'
sg16
g2
(g3
g4
NtRp1057
(dp1058
g7
g2
(g10
g4
NtRp1059
(dp1060
g13
F0.33333333333333331
sbsg14
F0.45507281866429006
sg15
S'y'
sg16
g2
(g10
g4
NtRp1061
(dp1062
g13
F0
sbsbsbsbsbsbsg14
F0.37159151149526704
sg15
S'x'
sg16
g2
(g3
g4
NtRp1063
(dp1064
g7
g2
(g3
g4
NtRp1065
(dp1066
g7
g2
(g3
g4
NtRp1067
(dp1068
g7
g2
(g10
g4
NtRp1069
(dp1070
g13
F0.25
sbsg14
F-0.26623522278699951
sg15
S'y'
sg16
g2
(g10
g4
NtRp1071
(dp1072
g13
F0
sbsbsg14
F0.43611590117424015
sg15
S'x'
sg16
g2
(g10
g4
NtRp1073
(dp1074
g13
F0
sbsbsg14
F0.49673904533913271
sg15
S'x'
sg16
g2
(g10
g4
NtRp1075
(dp1076
g13
F0
sbsbsbag2
(g3
g4
NtRp1077
(dp1078
g7
g2
(g3
g4
NtRp1079
(dp1080
g7
g2
(g3
g4
NtRp1081
(dp1082
g7
g2
(g10
g4
NtRp1083
(dp1084
g13
F0
sbsg14
F-0.39259155167440785
sg15
S'x'
sg16
g2
(g3
g4
NtRp1085
(dp1086
g7
g2
(g10
g4
NtRp1087
(dp1088
g13
F0
sbsg14
F-0.75596144678424171
sg15
S'y'
sg16
g2
(g10
g4
NtRp1089
(dp1090
g13
F1
sbsbsbsg14
F-0.33405631828398707
sg15
S'x'
sg16
g2
(g10
g4
NtRp1091
(dp1092
g13
F0
sbsbsg14
F-0.61648872325289572
sg15
S'y'
sg16
g2
(g3
g4
NtRp1093
(dp1094
g7
g2
(g3
g4
NtRp1095
(dp1096
g7
g2
(g3
g4
NtRp1097
(dp1098
g7
g2
(g3
g4
NtRp1099
(dp1100
g7
g2
(g3
g4
NtRp1101
(dp1102
g7
g2
(g10
g4
NtRp1103
(dp1104
g13
F0
sbsg14
F-0.50058160477612068
sg15
S'y'
sg16
g2
(g3
g4
NtRp1105
(dp1106
g7
g2
(g3
g4
NtRp1107
(dp1108
g7
g2
(g10
g4
NtRp1109
(dp1110
g13
F1
sbsg14
F-0.33193425809192334
sg15
S'y'
sg16
g2
(g3
g4
NtRp1111
(dp1112
g7
g2
(g10
g4
NtRp1113
(dp1114
g13
F0
sbsg14
F-0.31462338262055756
sg15
S'y'
sg16
g2
(g10
g4
NtRp1115
(dp1116
g13
F0.5
sbsbsbsg14
F-0.2387787081211985
sg15
S'y'
sg16
g2
(g10
g4
NtRp1117
(dp1118
g13
F1
sbsbsbsg14
F-0.18459209796258991
sg15
S'y'
sg16
g2
(g10
g4
NtRp1119
(dp1120
g13
F0
sbsbsg14
Nsg15
S'x'
sg16
g2
(g10
g4
NtRp1121
(dp1122
g13
F0
sbsbsg14
F-0.82649137875645051
sg15
S'x'
sg16
g2
(g3
g4
NtRp1123
(dp1124
g7
g2
(g3
g4
NtRp1125
(dp1126
g7
g2
(g3
g4
NtRp1127
(dp1128
g7
g2
(g3
g4
NtRp1129
(dp1130
g7
g2
(g3
g4
NtRp1131
(dp1132
g7
g2
(g3
g4
NtRp1133
(dp1134
g7
g2
(g3
g4
NtRp1135
(dp1136
g7
g2
(g10
g4
NtRp1137
(dp1138
g13
F0
sbsg14
F-0.31748839152106711
sg15
S'y'
sg16
g2
(g3
g4
NtRp1139
(dp1140
g7
g2
(g10
g4
NtRp1141
(dp1142
g13
F1
sbsg14
F-0.74582139851372764
sg15
S'x'
sg16
g2
(g10
g4
NtRp1143
(dp1144
g13
F0
sbsbsbsg14
F-0.70701544334327648
sg15
S'x'
sg16
g2
(g10
g4
NtRp1145
(dp1146
g13
F1
sbsbsg14
F0.40946466828761352
sg15
S'y'
sg16
g2
(g10
g4
NtRp1147
(dp1148
g13
F0
sbsbsg14
F-0.48481183729609789
sg15
S'x'
sg16
g2
(g10
g4
NtRp1149
(dp1150
g13
F1
sbsbsg14
F-0.48282919408366265
sg15
S'x'
sg16
g2
(g10
g4
NtRp1151
(dp1152
g13
F0
sbsbsg14
F-0.44904324899950376
sg15
S'x'
sg16
g2
(g3
g4
NtRp1153
(dp1154
g7
g2
(g3
g4
NtRp1155
(dp1156
g7
g2
(g3
g4
NtRp1157
(dp1158
g7
g2
(g10
g4
NtRp1159
(dp1160
g13
F0
sbsg14
F-0.51790652368307422
sg15
S'y'
sg16
g2
(g10
g4
NtRp1161
(dp1162
g13
F1
sbsbsg14
F0.2121238669701726
sg15
S'x'
sg16
g2
(g10
g4
NtRp1163
(dp1164
g13
F0
sbsbsg14
F0.37547643267317943
sg15
S'y'
sg16
g2
(g3
g4
NtRp1165
(dp1166
g7
g2
(g3
g4
NtRp1167
(dp1168
g7
g2
(g10
g4
NtRp1169
(dp1170
g13
F0
sbsg14
F-0.27459090900817085
sg15
S'x'
sg16
g2
(g10
g4
NtRp1171
(dp1172
g13
F0.5
sbsbsg14
F-0.25576289852307799
sg15
S'x'
sg16
g2
(g10
g4
NtRp1173
(dp1174
g13
F0
sbsbsbsbsg14
F0.22196047951416764
sg15
S'x'
sg16
g2
(g3
g4
NtRp1175
(dp1176
g7
g2
(g10
g4
NtRp1177
(dp1178
g13
F0
sbsg14
F0.25307026363990204
sg15
S'x'
sg16
g2
(g3
g4
NtRp1179
(dp1180
g7
g2
(g10
g4
NtRp1181
(dp1182
g13
F1
sbsg14
F0.26437770383656334
sg15
S'x'
sg16
g2
(g3
g4
NtRp1183
(dp1184
g7
g2
(g3
g4
NtRp1185
(dp1186
g7
g2
(g10
g4
NtRp1187
(dp1188
g13
F0
sbsg14
F-0.51792714617070201
sg15
S'y'
sg16
g2
(g10
g4
NtRp1189
(dp1190
g13
F0.66666666666666663
sbsbsg14
F0.14053565166158855
sg15
S'y'
sg16
g2
(g10
g4
NtRp1191
(dp1192
g13
F0
sbsbsbsbsbsbsg14
F0.36264828234695656
sg15
S'x'
sg16
g2
(g3
g4
NtRp1193
(dp1194
g7
g2
(g3
g4
NtRp1195
(dp1196
g7
g2
(g10
g4
NtRp1197
(dp1198
g13
F1
sbsg14
F-0.26623522278699951
sg15
S'y'
sg16
g2
(g10
g4
NtRp1199
(dp1200
g13
F0
sbsbsg14
F0.44331588058186133
sg15
S'x'
sg16
g2
(g10
g4
NtRp1201
(dp1202
g13
F0
sbsbsbsbag2
(g3
g4
NtRp1203
(dp1204
g7
g2
(g3
g4
NtRp1205
(dp1206
g7
g2
(g10
g4
NtRp1207
(dp1208
g13
F0
sbsg14
F-0.74335078314954561
sg15
S'y'
sg16
g2
(g3
g4
NtRp1209
(dp1210
g7
g2
(g3
g4
NtRp1211
(dp1212
g7
g2
(g10
g4
NtRp1213
(dp1214
g13
F0
sbsg14
F-0.82638674989671923
sg15
S'x'
sg16
g2
(g10
g4
NtRp1215
(dp1216
g13
F0.33333333333333331
sbsbsg14
F-0.72983496052889318
sg15
S'y'
sg16
g2
(g10
g4
NtRp1217
(dp1218
g13
F0
sbsbsbsg14
F-0.50953241555756268
sg15
S'y'
sg16
g2
(g3
g4
NtRp1219
(dp1220
g7
g2
(g3
g4
NtRp1221
(dp1222
g7
g2
(g3
g4
NtRp1223
(dp1224
g7
g2
(g3
g4
NtRp1225
(dp1226
g7
g2
(g3
g4
NtRp1227
(dp1228
g7
g2
(g3
g4
NtRp1229
(dp1230
g7
g2
(g10
g4
NtRp1231
(dp1232
g13
F0
sbsg14
F-0.50058160477612068
sg15
S'y'
sg16
g2
(g3
g4
NtRp1233
(dp1234
g7
g2
(g3
g4
NtRp1235
(dp1236
g7
g2
(g10
g4
NtRp1237
(dp1238
g13
F1
sbsg14
F-0.33193425809192334
sg15
S'y'
sg16
g2
(g3
g4
NtRp1239
(dp1240
g7
g2
(g10
g4
NtRp1241
(dp1242
g13
F0
sbsg14
F-0.31462338262055756
sg15
S'y'
sg16
g2
(g10
g4
NtRp1243
(dp1244
g13
F0.5
sbsbsbsg14
F-0.2387787081211985
sg15
S'y'
sg16
g2
(g10
g4
NtRp1245
(dp1246
g13
F1
sbsbsbsg14
F-0.18459209796258991
sg15
S'y'
sg16
g2
(g10
g4
NtRp1247
(dp1248
g13
F0
sbsbsg14
Nsg15
S'x'
sg16
g2
(g10
g4
NtRp1249
(dp1250
g13
F0
sbsbsg14
F-0.87831504909186142
sg15
S'x'
sg16
g2
(g3
g4
NtRp1251
(dp1252
g7
g2
(g3
g4
NtRp1253
(dp1254
g7
g2
(g10
g4
NtRp1255
(dp1256
g13
F0
sbsg14
F-0.70823563025416236
sg15
S'x'
sg16
g2
(g10
g4
NtRp1257
(dp1258
g13
F1
sbsbsg14
F-0.31748839152106711
sg15
S'y'
sg16
g2
(g3
g4
NtRp1259
(dp1260
g7
g2
(g10
g4
NtRp1261
(dp1262
g13
F1
sbsg14
F0.2121238669701726
sg15
S'x'
sg16
g2
(g10
g4
NtRp1263
(dp1264
g13
F0.5
sbsbsbsbsg14
F0.37547643267317943
sg15
S'y'
sg16
g2
(g3
g4
NtRp1265
(dp1266
g7
g2
(g3
g4
NtRp1267
(dp1268
g7
g2
(g10
g4
NtRp1269
(dp1270
g13
F0
sbsg14
F-0.43122350203900917
sg15
S'x'
sg16
g2
(g10
g4
NtRp1271
(dp1272
g13
F0.33333333333333331
sbsbsg14
F0.45808712187684231
sg15
S'y'
sg16
g2
(g10
g4
NtRp1273
(dp1274
g13
F0
sbsbsbsg14
F0.26651798055091191
sg15
S'x'
sg16
g2
(g3
g4
NtRp1275
(dp1276
g7
g2
(g3
g4
NtRp1277
(dp1278
g7
g2
(g3
g4
NtRp1279
(dp1280
g7
g2
(g3
g4
NtRp1281
(dp1282
g7
g2
(g10
g4
NtRp1283
(dp1284
g13
F1
sbsg14
F-0.14543972510357595
sg15
S'y'
sg16
g2
(g10
g4
NtRp1285
(dp1286
g13
F0
sbsbsg14
F0.31073252241532057
sg15
S'x'
sg16
g2
(g10
g4
NtRp1287
(dp1288
g13
F0
sbsbsg14
F0.41881881722202285
sg15
S'x'
sg16
g2
(g10
g4
NtRp1289
(dp1290
g13
F1
sbsbsg14
F0.43611590117424015
sg15
S'x'
sg16
g2
(g10
g4
NtRp1291
(dp1292
g13
F0
sbsbsbsbag2
(g3
g4
NtRp1293
(dp1294
g7
g2
(g3
g4
NtRp1295
(dp1296
g7
g2
(g3
g4
NtRp1297
(dp1298
g7
g2
(g10
g4
NtRp1299
(dp1300
g13
F0
sbsg14
F-0.36332515940874011
sg15
S'y'
sg16
g2
(g3
g4
NtRp1301
(dp1302
g7
g2
(g3
g4
NtRp1303
(dp1304
g7
g2
(g3
g4
NtRp1305
(dp1306
g7
g2
(g3
g4
NtRp1307
(dp1308
g7
g2
(g3
g4
NtRp1309
(dp1310
g7
g2
(g3
g4
NtRp1311
(dp1312
g7
g2
(g10
g4
NtRp1313
(dp1314
g13
F1
sbsg14
F-0.33193425809192334
sg15
S'y'
sg16
g2
(g10
g4
NtRp1315
(dp1316
g13
F0.5
sbsbsg14
F-0.2455678552169398
sg15
S'y'
sg16
g2
(g10
g4
NtRp1317
(dp1318
g13
F0
sbsbsg14
F-0.2387787081211985
sg15
S'y'
sg16
g2
(g10
g4
NtRp1319
(dp1320
g13
F1
sbsbsg14
Nsg15
S'x'
sg16
g2
(g10
g4
NtRp1321
(dp1322
g13
F0
sbsbsg14
F-0.18459209796258991
sg15
S'y'
sg16
g2
(g3
g4
NtRp1323
(dp1324
g7
g2
(g10
g4
NtRp1325
(dp1326
g13
F0
sbsg14
F-0.82242024356403221
sg15
S'x'
sg16
g2
(g10
g4
NtRp1327
(dp1328
g13
F0.33333333333333331
sbsbsbsg14
F-0.7844113536851447
sg15
S'x'
sg16
g2
(g3
g4
NtRp1329
(dp1330
g7
g2
(g10
g4
NtRp1331
(dp1332
g13
F1
sbsg14
F-0.78373623257343494
sg15
S'x'
sg16
g2
(g3
g4
NtRp1333
(dp1334
g7
g2
(g3
g4
NtRp1335
(dp1336
g7
g2
(g3
g4
NtRp1337
(dp1338
g7
g2
(g3
g4
NtRp1339
(dp1340
g7
g2
(g10
g4
NtRp1341
(dp1342
g13
F1
sbsg14
F0.16979807948822767
sg15
S'y'
sg16
g2
(g10
g4
NtRp1343
(dp1344
g13
F0
sbsbsg14
F-0.74582139851372764
sg15
S'x'
sg16
g2
(g10
g4
NtRp1345
(dp1346
g13
F0
sbsbsg14
F-0.65543906663347329
sg15
S'x'
sg16
g2
(g10
g4
NtRp1347
(dp1348
g13
F0.66666666666666663
sbsbsg14
F-0.63829217650062686
sg15
S'x'
sg16
g2
(g10
g4
NtRp1349
(dp1350
g13
F0
sbsbsbsbsbsg14
F-0.59404919863027716
sg15
S'x'
sg16
g2
(g3
g4
NtRp1351
(dp1352
g7
g2
(g3
g4
NtRp1353
(dp1354
g7
g2
(g3
g4
NtRp1355
(dp1356
g7
g2
(g3
g4
NtRp1357
(dp1358
g7
g2
(g3
g4
NtRp1359
(dp1360
g7
g2
(g3
g4
NtRp1361
(dp1362
g7
g2
(g10
g4
NtRp1363
(dp1364
g13
F0
sbsg14
F-0.78371209382454143
sg15
S'y'
sg16
g2
(g10
g4
NtRp1365
(dp1366
g13
F1
sbsbsg14
F-0.037736476128855223
sg15
S'y'
sg16
g2
(g10
g4
NtRp1367
(dp1368
g13
F0
sbsbsg14
F-0.50544819336607505
sg15
S'x'
sg16
g2
(g3
g4
NtRp1369
(dp1370
g7
g2
(g10
g4
NtRp1371
(dp1372
g13
F1
sbsg14
F-0.49287682760172835
sg15
S'x'
sg16
g2
(g10
g4
NtRp1373
(dp1374
g13
F0.25
sbsbsbsg14
F-0.48141842794759215
sg15
S'x'
sg16
g2
(g10
g4
NtRp1375
(dp1376
g13
F0
sbsbsg14
F-0.44954493657738315
sg15
S'x'
sg16
g2
(g3
g4
NtRp1377
(dp1378
g7
g2
(g3
g4
NtRp1379
(dp1380
g7
g2
(g3
g4
NtRp1381
(dp1382
g7
g2
(g10
g4
NtRp1383
(dp1384
g13
F0
sbsg14
F-1.1731770802068935
sg15
S'y'
sg16
g2
(g10
g4
NtRp1385
(dp1386
g13
F1
sbsbsg14
F-0.40357010272059135
sg15
S'x'
sg16
g2
(g3
g4
NtRp1387
(dp1388
g7
g2
(g3
g4
NtRp1389
(dp1390
g7
g2
(g10
g4
NtRp1391
(dp1392
g13
F0.5
sbsg14
F-0.38777710893655026
sg15
S'x'
sg16
g2
(g10
g4
NtRp1393
(dp1394
g13
F0
sbsbsg14
F-0.51790652368307422
sg15
S'y'
sg16
g2
(g3
g4
NtRp1395
(dp1396
g7
g2
(g10
g4
NtRp1397
(dp1398
g13
F1
sbsg14
F0.37547643267317943
sg15
S'y'
sg16
g2
(g10
g4
NtRp1399
(dp1400
g13
F0
sbsbsbsbsg14
F0.44333373954247035
sg15
S'y'
sg16
g2
(g3
g4
NtRp1401
(dp1402
g7
g2
(g10
g4
NtRp1403
(dp1404
g13
F0.33333333333333331
sbsg14
F0.57614916082856782
sg15
S'y'
sg16
g2
(g10
g4
NtRp1405
(dp1406
g13
F0
sbsbsbsbsg14
F0.2121238669701726
sg15
S'x'
sg16
g2
(g3
g4
NtRp1407
(dp1408
g7
g2
(g3
g4
NtRp1409
(dp1410
g7
g2
(g10
g4
NtRp1411
(dp1412
g13
F0
sbsg14
F-0.55613848479038852
sg15
S'y'
sg16
g2
(g3
g4
NtRp1413
(dp1414
g7
g2
(g10
g4
NtRp1415
(dp1416
g13
F0
sbsg14
F0.22196047951416764
sg15
S'x'
sg16
g2
(g3
g4
NtRp1417
(dp1418
g7
g2
(g3
g4
NtRp1419
(dp1420
g7
g2
(g10
g4
NtRp1421
(dp1422
g13
F1
sbsg14
F0.28466730639834115
sg15
S'x'
sg16
g2
(g10
g4
NtRp1423
(dp1424
g13
F0.5
sbsbsg14
F0.015472705653512886
sg15
S'y'
sg16
g2
(g10
g4
NtRp1425
(dp1426
g13
F0
sbsbsbsbsg14
F0.3786417150015926
sg15
S'y'
sg16
g2
(g10
g4
NtRp1427
(dp1428
g13
F0
sbsbsbsbsg14
F0.37159151149526704
sg15
S'x'
sg16
g2
(g3
g4
NtRp1429
(dp1430
g7
g2
(g3
g4
NtRp1431
(dp1432
g7
g2
(g3
g4
NtRp1433
(dp1434
g7
g2
(g10
g4
NtRp1435
(dp1436
g13
F0
sbsg14
F0.40635016081880648
sg15
S'x'
sg16
g2
(g10
g4
NtRp1437
(dp1438
g13
F0.5
sbsbsg14
F0.43917938979177595
sg15
S'x'
sg16
g2
(g10
g4
NtRp1439
(dp1440
g13
F0
sbsbsg14
F-0.26435893682941902
sg15
S'y'
sg16
g2
(g10
g4
NtRp1441
(dp1442
g13
F0
sbsbsbag2
(g3
g4
NtRp1443
(dp1444
g7
g2
(g3
g4
NtRp1445
(dp1446
g7
g2
(g3
g4
NtRp1447
(dp1448
g7
g2
(g3
g4
NtRp1449
(dp1450
g7
g2
(g10
g4
NtRp1451
(dp1452
g13
F0
sbsg14
F-0.74335078314954561
sg15
S'y'
sg16
g2
(g3
g4
NtRp1453
(dp1454
g7
g2
(g10
g4
NtRp1455
(dp1456
g13
F0
sbsg14
F-0.45585930680072861
sg15
S'x'
sg16
g2
(g3
g4
NtRp1457
(dp1458
g7
g2
(g10
g4
NtRp1459
(dp1460
g13
F0.5
sbsg14
F-0.7317342781318299
sg15
S'y'
sg16
g2
(g10
g4
NtRp1461
(dp1462
g13
F0
sbsbsbsbsg14
F0.16562293322814803
sg15
S'x'
sg16
g2
(g10
g4
NtRp1463
(dp1464
g13
F0
sbsbsg14
F-0.52863766836348347
sg15
S'y'
sg16
g2
(g3
g4
NtRp1465
(dp1466
g7
g2
(g3
g4
NtRp1467
(dp1468
g7
g2
(g3
g4
NtRp1469
(dp1470
g7
g2
(g10
g4
NtRp1471
(dp1472
g13
F0
sbsg14
F-0.50723125359650201
sg15
S'y'
sg16
g2
(g10
g4
NtRp1473
(dp1474
g13
F0.33333333333333331
sbsbsg14
F-0.48956303667815737
sg15
S'y'
sg16
g2
(g3
g4
NtRp1475
(dp1476
g7
g2
(g3
g4
NtRp1477
(dp1478
g7
g2
(g3
g4
NtRp1479
(dp1480
g7
g2
(g10
g4
NtRp1481
(dp1482
g13
F0
sbsg14
F-1.7352561467544096
sg15
S'x'
sg16
g2
(g10
g4
NtRp1483
(dp1484
g13
F1
sbsbsg14
F0.16618485280648754
sg15
S'x'
sg16
g2
(g10
g4
NtRp1485
(dp1486
g13
F0
sbsbsg14
F-0.39182305788768579
sg15
S'y'
sg16
g2
(g3
g4
NtRp1487
(dp1488
g7
g2
(g3
g4
NtRp1489
(dp1490
g7
g2
(g3
g4
NtRp1491
(dp1492
g7
g2
(g3
g4
NtRp1493
(dp1494
g7
g2
(g3
g4
NtRp1495
(dp1496
g7
g2
(g10
g4
NtRp1497
(dp1498
g13
F0.5
sbsg14
F-0.26789556201165698
sg15
S'y'
sg16
g2
(g10
g4
NtRp1499
(dp1500
g13
F1
sbsbsg14
Nsg15
S'x'
sg16
g2
(g10
g4
NtRp1501
(dp1502
g13
F0
sbsbsg14
F-0.2455678552169398
sg15
S'y'
sg16
g2
(g3
g4
NtRp1503
(dp1504
g7
g2
(g3
g4
NtRp1505
(dp1506
g7
g2
(g10
g4
NtRp1507
(dp1508
g13
F0.5
sbsg14
F-0.18459209796258991
sg15
S'y'
sg16
g2
(g10
g4
NtRp1509
(dp1510
g13
F0
sbsbsg14
Nsg15
S'x'
sg16
g2
(g10
g4
NtRp1511
(dp1512
g13
F0
sbsbsbsg14
F-0.87831504909186142
sg15
S'x'
sg16
g2
(g3
g4
NtRp1513
(dp1514
g7
g2
(g3
g4
NtRp1515
(dp1516
g7
g2
(g10
g4
NtRp1517
(dp1518
g13
F0
sbsg14
F-0.31748839152106711
sg15
S'y'
sg16
g2
(g10
g4
NtRp1519
(dp1520
g13
F1
sbsbsg14
F-0.65475515069743251
sg15
S'x'
sg16
g2
(g3
g4
NtRp1521
(dp1522
g7
g2
(g10
g4
NtRp1523
(dp1524
g13
F1
sbsg14
F0.26437770383656334
sg15
S'x'
sg16
g2
(g10
g4
NtRp1525
(dp1526
g13
F0.66666666666666663
sbsbsbsbsg14
F0.31073252241532057
sg15
S'x'
sg16
g2
(g3
g4
NtRp1527
(dp1528
g7
g2
(g10
g4
NtRp1529
(dp1530
g13
F0.5
sbsg14
F0.43611590117424015
sg15
S'x'
sg16
g2
(g10
g4
NtRp1531
(dp1532
g13
F0
sbsbsbsbsbsg14
F0.22089022850375128
sg15
S'y'
sg16
g2
(g3
g4
NtRp1533
(dp1534
g7
g2
(g3
g4
NtRp1535
(dp1536
g7
g2
(g3
g4
NtRp1537
(dp1538
g7
g2
(g10
g4
NtRp1539
(dp1540
g13
F0
sbsg14
F-0.57112206913155061
sg15
S'x'
sg16
g2
(g10
g4
NtRp1541
(dp1542
g13
F0.66666666666666663
sbsbsg14
F-0.26802057157969683
sg15
S'x'
sg16
g2
(g3
g4
NtRp1543
(dp1544
g7
g2
(g10
g4
NtRp1545
(dp1546
g13
F1
sbsg14
F0.37547643267317943
sg15
S'y'
sg16
g2
(g10
g4
NtRp1547
(dp1548
g13
F0
sbsbsbsg14
F0.094933463639929272
sg15
S'x'
sg16
g2
(g10
g4
NtRp1549
(dp1550
g13
F0
sbsbsbsbsg14
F0.49331163806788947
sg15
S'y'
sg16
g2
(g10
g4
NtRp1551
(dp1552
g13
F0
sbsbag2
(g3
g4
NtRp1553
(dp1554
g7
g2
(g3
g4
NtRp1555
(dp1556
g7
g2
(g3
g4
NtRp1557
(dp1558
g7
g2
(g10
g4
NtRp1559
(dp1560
g13
F0
sbsg14
F-0.3693044499481597
sg15
S'y'
sg16
g2
(g3
g4
NtRp1561
(dp1562
g7
g2
(g3
g4
NtRp1563
(dp1564
g7
g2
(g3
g4
NtRp1565
(dp1566
g7
g2
(g10
g4
NtRp1567
(dp1568
g13
F1
sbsg14
F-0.33193425809192334
sg15
S'y'
sg16
g2
(g10
g4
NtRp1569
(dp1570
g13
F0.5
sbsbsg14
F-0.2455678552169398
sg15
S'y'
sg16
g2
(g3
g4
NtRp1571
(dp1572
g7
g2
(g10
g4
NtRp1573
(dp1574
g13
F0.33333333333333331
sbsg14
F-0.14164490942978958
sg15
S'y'
sg16
g2
(g10
g4
NtRp1575
(dp1576
g13
F0
sbsbsbsg14
Nsg15
S'x'
sg16
g2
(g10
g4
NtRp1577
(dp1578
g13
F0
sbsbsbsg14
F-0.79478320154162851
sg15
S'x'
sg16
g2
(g3
g4
NtRp1579
(dp1580
g7
g2
(g3
g4
NtRp1581
(dp1582
g7
g2
(g3
g4
NtRp1583
(dp1584
g7
g2
(g3
g4
NtRp1585
(dp1586
g7
g2
(g3
g4
NtRp1587
(dp1588
g7
g2
(g10
g4
NtRp1589
(dp1590
g13
F0
sbsg14
F-0.78580941099981771
sg15
S'x'
sg16
g2
(g3
g4
NtRp1591
(dp1592
g7
g2
(g10
g4
NtRp1593
(dp1594
g13
F0.5
sbsg14
F-0.77758554640077726
sg15
S'x'
sg16
g2
(g10
g4
NtRp1595
(dp1596
g13
F1
sbsbsbsg14
F-0.76835352674224611
sg15
S'x'
sg16
g2
(g3
g4
NtRp1597
(dp1598
g7
g2
(g3
g4
NtRp1599
(dp1600
g7
g2
(g10
g4
NtRp1601
(dp1602
g13
F0.33333333333333331
sbsg14
F-0.74582139851372764
sg15
S'x'
sg16
g2
(g10
g4
NtRp1603
(dp1604
g13
F0
sbsbsg14
F-0.66372624378992828
sg15
S'x'
sg16
g2
(g3
g4
NtRp1605
(dp1606
g7
g2
(g10
g4
NtRp1607
(dp1608
g13
F1
sbsg14
F-0.65423859949522356
sg15
S'x'
sg16
g2
(g3
g4
NtRp1609
(dp1610
g7
g2
(g10
g4
NtRp1611
(dp1612
g13
F0
sbsg14
F-0.70371872581783723
sg15
S'y'
sg16
g2
(g3
g4
NtRp1613
(dp1614
g7
g2
(g10
g4
NtRp1615
(dp1616
g13
F1
sbsg14
F0.22022344640722391
sg15
S'y'
sg16
g2
(g10
g4
NtRp1617
(dp1618
g13
F0
sbsbsbsbsbsbsg14
F-0.42883004106130196
sg15
S'x'
sg16
g2
(g3
g4
NtRp1619
(dp1620
g7
g2
(g3
g4
NtRp1621
(dp1622
g7
g2
(g3
g4
NtRp1623
(dp1624
g7
g2
(g3
g4
NtRp1625
(dp1626
g7
g2
(g10
g4
NtRp1627
(dp1628
g13
F0.33333333333333331
sbsg14
F-0.41608835587964244
sg15
S'x'
sg16
g2
(g3
g4
NtRp1629
(dp1630
g7
g2
(g10
g4
NtRp1631
(dp1632
g13
F1
sbsg14
F-0.40357010272059135
sg15
S'x'
sg16
g2
(g10
g4
NtRp1633
(dp1634
g13
F0.5
sbsbsbsg14
F-0.38777710893655026
sg15
S'x'
sg16
g2
(g3
g4
NtRp1635
(dp1636
g7
g2
(g3
g4
NtRp1637
(dp1638
g7
g2
(g3
g4
NtRp1639
(dp1640
g7
g2
(g3
g4
NtRp1641
(dp1642
g7
g2
(g10
g4
NtRp1643
(dp1644
g13
F0
sbsg14
F-0.72243510821205259
sg15
S'y'
sg16
g2
(g10
g4
NtRp1645
(dp1646
g13
F1
sbsbsg14
F-0.116883635910217
sg15
S'x'
sg16
g2
(g10
g4
NtRp1647
(dp1648
g13
F0
sbsbsg14
F-0.10690047198617769
sg15
S'x'
sg16
g2
(g3
g4
NtRp1649
(dp1650
g7
g2
(g10
g4
NtRp1651
(dp1652
g13
F1
sbsg14
F-0.066087717696164727
sg15
S'x'
sg16
g2
(g3
g4
NtRp1653
(dp1654
g7
g2
(g10
g4
NtRp1655
(dp1656
g13
F0
sbsg14
F-0.51790652368307422
sg15
S'y'
sg16
g2
(g3
g4
NtRp1657
(dp1658
g7
g2
(g10
g4
NtRp1659
(dp1660
g13
F1
sbsg14
F0.068136540479826202
sg15
S'x'
sg16
g2
(g3
g4
NtRp1661
(dp1662
g7
g2
(g10
g4
NtRp1663
(dp1664
g13
F1
sbsg14
F0.37547643267317943
sg15
S'y'
sg16
g2
(g10
g4
NtRp1665
(dp1666
g13
F0
sbsbsbsbsbsbsg14
F0.2121238669701726
sg15
S'x'
sg16
g2
(g3
g4
NtRp1667
(dp1668
g7
g2
(g10
g4
NtRp1669
(dp1670
g13
F0
sbsg14
F0.246369766266747
sg15
S'x'
sg16
g2
(g10
g4
NtRp1671
(dp1672
g13
F0.5
sbsbsbsbsg14
F0.26287977435296161
sg15
S'x'
sg16
g2
(g10
g4
NtRp1673
(dp1674
g13
F1
sbsbsg14
F0.26437770383656334
sg15
S'x'
sg16
g2
(g10
g4
NtRp1675
(dp1676
g13
F0
sbsbsbsg14
F0.27247336587864002
sg15
S'x'
sg16
g2
(g3
g4
NtRp1677
(dp1678
g7
g2
(g10
g4
NtRp1679
(dp1680
g13
F0
sbsg14
F-0.51792714617070201
sg15
S'y'
sg16
g2
(g3
g4
NtRp1681
(dp1682
g7
g2
(g3
g4
NtRp1683
(dp1684
g7
g2
(g3
g4
NtRp1685
(dp1686
g7
g2
(g10
g4
NtRp1687
(dp1688
g13
F0.5
sbsg14
F0.31073252241532057
sg15
S'x'
sg16
g2
(g10
g4
NtRp1689
(dp1690
g13
F0
sbsbsg14
F0.40909399732119667
sg15
S'x'
sg16
g2
(g10
g4
NtRp1691
(dp1692
g13
F1
sbsbsg14
F0.43611590117424015
sg15
S'x'
sg16
g2
(g10
g4
NtRp1693
(dp1694
g13
F0
sbsbsbsbsg14
F0.45142647138793679
sg15
S'y'
sg16
g2
(g3
g4
NtRp1695
(dp1696
g7
g2
(g3
g4
NtRp1697
(dp1698
g7
g2
(g10
g4
NtRp1699
(dp1700
g13
F0
sbsg14
F-0.27749023609300538
sg15
S'x'
sg16
g2
(g10
g4
NtRp1701
(dp1702
g13
F0.25
sbsbsg14
F-0.25151190766582765
sg15
S'x'
sg16
g2
(g10
g4
NtRp1703
(dp1704
g13
F0
sbsbsbsbsg14
F0.47238196990596348
sg15
S'x'
sg16
g2
(g10
g4
NtRp1705
(dp1706
g13
F0
sbsbag2
(g3
g4
NtRp1707
(dp1708
g7
g2
(g3
g4
NtRp1709
(dp1710
g7
g2
(g10
g4
NtRp1711
(dp1712
g13
F0
sbsg14
F-0.74335078314954561
sg15
S'y'
sg16
g2
(g3
g4
NtRp1713
(dp1714
g7
g2
(g10
g4
NtRp1715
(dp1716
g13
F0
sbsg14
F-0.45585930680072861
sg15
S'x'
sg16
g2
(g3
g4
NtRp1717
(dp1718
g7
g2
(g10
g4
NtRp1719
(dp1720
g13
F1
sbsg14
F-0.38777710893655026
sg15
S'x'
sg16
g2
(g10
g4
NtRp1721
(dp1722
g13
F0
sbsbsbsbsg14
F-0.5864361049364426
sg15
S'y'
sg16
g2
(g3
g4
NtRp1723
(dp1724
g7
g2
(g3
g4
NtRp1725
(dp1726
g7
g2
(g10
g4
NtRp1727
(dp1728
g13
F0
sbsg14
F-0.50723125359650201
sg15
S'y'
sg16
g2
(g3
g4
NtRp1729
(dp1730
g7
g2
(g3
g4
NtRp1731
(dp1732
g7
g2
(g3
g4
NtRp1733
(dp1734
g7
g2
(g3
g4
NtRp1735
(dp1736
g7
g2
(g3
g4
NtRp1737
(dp1738
g7
g2
(g10
g4
NtRp1739
(dp1740
g13
F0
sbsg14
F-1.8854591531772118
sg15
S'x'
sg16
g2
(g10
g4
NtRp1741
(dp1742
g13
F1
sbsbsg14
F-0.43449197256793282
sg15
S'y'
sg16
g2
(g10
g4
NtRp1743
(dp1744
g13
F1
sbsbsg14
F0.054221070855285269
sg15
S'x'
sg16
g2
(g10
g4
NtRp1745
(dp1746
g13
F0
sbsbsg14
F-0.42569520392028881
sg15
S'y'
sg16
g2
(g3
g4
NtRp1747
(dp1748
g7
g2
(g10
g4
NtRp1749
(dp1750
g13
F1
sbsg14
F-0.41765085344301145
sg15
S'y'
sg16
g2
(g3
g4
NtRp1751
(dp1752
g7
g2
(g10
g4
NtRp1753
(dp1754
g13
F0
sbsg14
F-1.5786951245811083
sg15
S'x'
sg16
g2
(g3
g4
NtRp1755
(dp1756
g7
g2
(g10
g4
NtRp1757
(dp1758
g13
F1
sbsg14
F0.068136540479826202
sg15
S'x'
sg16
g2
(g10
g4
NtRp1759
(dp1760
g13
F0
sbsbsbsbsbsg14
F-0.39065139835743423
sg15
S'y'
sg16
g2
(g3
g4
NtRp1761
(dp1762
g7
g2
(g3
g4
NtRp1763
(dp1764
g7
g2
(g3
g4
NtRp1765
(dp1766
g7
g2
(g10
g4
NtRp1767
(dp1768
g13
F0.5
sbsg14
F-0.36359075777183625
sg15
S'y'
sg16
g2
(g10
g4
NtRp1769
(dp1770
g13
F0
sbsbsg14
F0.28466730639834115
sg15
S'x'
sg16
g2
(g10
g4
NtRp1771
(dp1772
g13
F0
sbsbsg14
F-0.34374082749758195
sg15
S'y'
sg16
g2
(g3
g4
NtRp1773
(dp1774
g7
g2
(g3
g4
NtRp1775
(dp1776
g7
g2
(g3
g4
NtRp1777
(dp1778
g7
g2
(g3
g4
NtRp1779
(dp1780
g7
g2
(g10
g4
NtRp1781
(dp1782
g13
F0.66666666666666663
sbsg14
Nsg15
S'x'
sg16
g2
(g10
g4
NtRp1783
(dp1784
g13
F0
sbsbsg14
F-0.70823563025416236
sg15
S'x'
sg16
g2
(g10
g4
NtRp1785
(dp1786
g13
F1
sbsbsg14
F0.18471432446111535
sg15
S'x'
sg16
g2
(g10
g4
NtRp1787
(dp1788
g13
F0
sbsbsg14
F-0.29867946108582544
sg15
S'y'
sg16
g2
(g3
g4
NtRp1789
(dp1790
g7
g2
(g3
g4
NtRp1791
(dp1792
g7
g2
(g3
g4
NtRp1793
(dp1794
g7
g2
(g3
g4
NtRp1795
(dp1796
g7
g2
(g3
g4
NtRp1797
(dp1798
g7
g2
(g3
g4
NtRp1799
(dp1800
g7
g2
(g10
g4
NtRp1801
(dp1802
g13
F0.25
sbsg14
F-0.2455678552169398
sg15
S'y'
sg16
g2
(g3
g4
NtRp1803
(dp1804
g7
g2
(g3
g4
NtRp1805
(dp1806
g7
g2
(g3
g4
NtRp1807
(dp1808
g7
g2
(g3
g4
NtRp1809
(dp1810
g7
g2
(g10
g4
NtRp1811
(dp1812
g13
F0.5
sbsg14
Nsg15
S'x'
sg16
g2
(g10
g4
NtRp1813
(dp1814
g13
F0
sbsbsg14
F-0.18459209796258991
sg15
S'y'
sg16
g2
(g10
g4
NtRp1815
(dp1816
g13
F0
sbsbsg14
F-0.87831504909186142
sg15
S'x'
sg16
g2
(g10
g4
NtRp1817
(dp1818
g13
F1
sbsbsg14
F-0.074186145116865276
sg15
S'y'
sg16
g2
(g10
g4
NtRp1819
(dp1820
g13
F0
sbsbsbsg14
F0.050017318447919124
sg15
S'y'
sg16
g2
(g10
g4
NtRp1821
(dp1822
g13
F1
sbsbsg14
F-0.78373623257343494
sg15
S'x'
sg16
g2
(g3
g4
NtRp1823
(dp1824
g7
g2
(g10
g4
NtRp1825
(dp1826
g13
F1
sbsg14
F0.31073252241532057
sg15
S'x'
sg16
g2
(g10
g4
NtRp1827
(dp1828
g13
F0.33333333333333331
sbsbsbsg14
F0.052171813952389456
sg15
S'y'
sg16
g2
(g3
g4
NtRp1829
(dp1830
g7
g2
(g10
g4
NtRp1831
(dp1832
g13
F0
sbsg14
F-1.2266040740887467
sg15
S'x'
sg16
g2
(g10
g4
NtRp1833
(dp1834
g13
F1
sbsbsbsg14
F0.43632183646952161
sg15
S'x'
sg16
g2
(g10
g4
NtRp1835
(dp1836
g13
F0
sbsbsg14
F0.13030377046294772
sg15
S'y'
sg16
g2
(g3
g4
NtRp1837
(dp1838
g7
g2
(g3
g4
NtRp1839
(dp1840
g7
g2
(g3
g4
NtRp1841
(dp1842
g7
g2
(g3
g4
NtRp1843
(dp1844
g7
g2
(g10
g4
NtRp1845
(dp1846
g13
F0
sbsg14
F-1.701012646431447
sg15
S'x'
sg16
g2
(g10
g4
NtRp1847
(dp1848
g13
F1
sbsbsg14
F0.18499000379911612
sg15
S'y'
sg16
g2
(g10
g4
NtRp1849
(dp1850
g13
F0
sbsbsg14
F0.19502536904143497
sg15
S'y'
sg16
g2
(g10
g4
NtRp1851
(dp1852
g13
F1
sbsbsg14
F0.024683192215477323
sg15
S'x'
sg16
g2
(g10
g4
NtRp1853
(dp1854
g13
F0
sbsbsbsbsbsbsbsg14
F0.22089022850375128
sg15
S'y'
sg16
g2
(g3
g4
NtRp1855
(dp1856
g7
g2
(g3
g4
NtRp1857
(dp1858
g7
g2
(g3
g4
NtRp1859
(dp1860
g7
g2
(g3
g4
NtRp1861
(dp1862
g7
g2
(g3
g4
NtRp1863
(dp1864
g7
g2
(g3
g4
NtRp1865
(dp1866
g7
g2
(g10
g4
NtRp1867
(dp1868
g13
F0
sbsg14
F-1.026924584711308
sg15
S'x'
sg16
g2
(g10
g4
NtRp1869
(dp1870
g13
F1
sbsbsg14
F0.37288613751680666
sg15
S'y'
sg16
g2
(g10
g4
NtRp1871
(dp1872
g13
F1
sbsbsg14
F0.37547643267317943
sg15
S'y'
sg16
g2
(g10
g4
NtRp1873
(dp1874
g13
F0
sbsbsg14
F0.094933463639929272
sg15
S'x'
sg16
g2
(g10
g4
NtRp1875
(dp1876
g13
F0
sbsbsg14
F0.45142647138793679
sg15
S'y'
sg16
g2
(g10
g4
NtRp1877
(dp1878
g13
F1
sbsbsg14
F0.45507281866429006
sg15
S'y'
sg16
g2
(g10
g4
NtRp1879
(dp1880
g13
F0
sbsbsbsbag2
(g3
g4
NtRp1881
(dp1882
g7
g2
(g3
g4
NtRp1883
(dp1884
g7
g2
(g3
g4
NtRp1885
(dp1886
g7
g2
(g3
g4
NtRp1887
(dp1888
g7
g2
(g10
g4
NtRp1889
(dp1890
g13
F0
sbsg14
F-0.74169687848698995
sg15
S'y'
sg16
g2
(g3
g4
NtRp1891
(dp1892
g7
g2
(g10
g4
NtRp1893
(dp1894
g13
F0
sbsg14
F-0.62979372733947114
sg15
S'x'
sg16
g2
(g10
g4
NtRp1895
(dp1896
g13
F0.5
sbsbsbsg14
F-0.51743682154159076
sg15
S'y'
sg16
g2
(g10
g4
NtRp1897
(dp1898
g13
F0.5
sbsbsg14
F-0.22345777092740482
sg15
S'x'
sg16
g2
(g10
g4
NtRp1899
(dp1900
g13
F0
sbsbsg14
F-0.50058160477612068
sg15
S'y'
sg16
g2
(g3
g4
NtRp1901
(dp1902
g7
g2
(g3
g4
NtRp1903
(dp1904
g7
g2
(g3
g4
NtRp1905
(dp1906
g7
g2
(g3
g4
NtRp1907
(dp1908
g7
g2
(g3
g4
NtRp1909
(dp1910
g7
g2
(g3
g4
NtRp1911
(dp1912
g7
g2
(g3
g4
NtRp1913
(dp1914
g7
g2
(g3
g4
NtRp1915
(dp1916
g7
g2
(g10
g4
NtRp1917
(dp1918
g13
F1
sbsg14
F-0.33193425809192334
sg15
S'y'
sg16
g2
(g10
g4
NtRp1919
(dp1920
g13
F0.5
sbsbsg14
F-0.2455678552169398
sg15
S'y'
sg16
g2
(g10
g4
NtRp1921
(dp1922
g13
F0
sbsbsg14
F-0.2387787081211985
sg15
S'y'
sg16
g2
(g10
g4
NtRp1923
(dp1924
g13
F1
sbsbsg14
F-0.18459209796258991
sg15
S'y'
sg16
g2
(g10
g4
NtRp1925
(dp1926
g13
F0
sbsbsg14
Nsg15
S'x'
sg16
g2
(g10
g4
NtRp1927
(dp1928
g13
F0
sbsbsg14
F-0.87658075169173699
sg15
S'x'
sg16
g2
(g3
g4
NtRp1929
(dp1930
g7
g2
(g10
g4
NtRp1931
(dp1932
g13
F0
sbsg14
F-0.82242024356403221
sg15
S'x'
sg16
g2
(g3
g4
NtRp1933
(dp1934
g7
g2
(g10
g4
NtRp1935
(dp1936
g13
F0.5
sbsg14
F-0.78373623257343494
sg15
S'x'
sg16
g2
(g3
g4
NtRp1937
(dp1938
g7
g2
(g10
g4
NtRp1939
(dp1940
g13
F0
sbsg14
F-0.77040598460250997
sg15
S'x'
sg16
g2
(g3
g4
NtRp1941
(dp1942
g7
g2
(g10
g4
NtRp1943
(dp1944
g13
F1
sbsg14
F-0.76835352674224611
sg15
S'x'
sg16
g2
(g3
g4
NtRp1945
(dp1946
g7
g2
(g3
g4
NtRp1947
(dp1948
g7
g2
(g10
g4
NtRp1949
(dp1950
g13
F0.25
sbsg14
F-0.74582139851372764
sg15
S'x'
sg16
g2
(g10
g4
NtRp1951
(dp1952
g13
F0
sbsbsg14
F-0.65543906663347329
sg15
S'x'
sg16
g2
(g3
g4
NtRp1953
(dp1954
g7
g2
(g10
g4
NtRp1955
(dp1956
g13
F1
sbsg14
F-0.65423859949522356
sg15
S'x'
sg16
g2
(g3
g4
NtRp1957
(dp1958
g7
g2
(g10
g4
NtRp1959
(dp1960
g13
F0
sbsg14
F-0.58998752211669014
sg15
S'x'
sg16
g2
(g3
g4
NtRp1961
(dp1962
g7
g2
(g10
g4
NtRp1963
(dp1964
g13
F1
sbsg14
F-0.074864038589874671
sg15
S'y'
sg16
g2
(g10
g4
NtRp1965
(dp1966
g13
F0
sbsbsbsbsbsbsbsbsbsbsg14
F-0.56439974823104677
sg15
S'x'
sg16
g2
(g3
g4
NtRp1967
(dp1968
g7
g2
(g3
g4
NtRp1969
(dp1970
g7
g2
(g3
g4
NtRp1971
(dp1972
g7
g2
(g10
g4
NtRp1973
(dp1974
g13
F1
sbsg14
F0.31921539511580521
sg15
S'y'
sg16
g2
(g10
g4
NtRp1975
(dp1976
g13
F0.5
sbsbsg14
F0.45507281866429006
sg15
S'y'
sg16
g2
(g10
g4
NtRp1977
(dp1978
g13
F0
sbsbsg14
F0.2121238669701726
sg15
S'x'
sg16
g2
(g3
g4
NtRp1979
(dp1980
g7
g2
(g10
g4
NtRp1981
(dp1982
g13
F1
sbsg14
F0.015472705653512886
sg15
S'y'
sg16
g2
(g10
g4
NtRp1983
(dp1984
g13
F0
sbsbsbsbsg14
F0.29595741333259173
sg15
S'x'
sg16
g2
(g3
g4
NtRp1985
(dp1986
g7
g2
(g3
g4
NtRp1987
(dp1988
g7
g2
(g10
g4
NtRp1989
(dp1990
g13
F1
sbsg14
F-0.14543972510357595
sg15
S'y'
sg16
g2
(g10
g4
NtRp1991
(dp1992
g13
F0
sbsbsg14
F0.43617608589993839
sg15
S'x'
sg16
g2
(g10
g4
NtRp1993
(dp1994
g13
F0
sbsbsbsbag2
(g3
g4
NtRp1995
(dp1996
g7
g2
(g3
g4
NtRp1997
(dp1998
g7
g2
(g10
g4
NtRp1999
(dp2000
g13
F0
sbsg14
F-0.75596144678424171
sg15
S'y'
sg16
g2
(g3
g4
NtRp2001
(dp2002
g7
g2
(g3
g4
NtRp2003
(dp2004
g7
g2
(g10
g4
NtRp2005
(dp2006
g13
F0
sbsg14
F-0.73419221392083278
sg15
S'y'
sg16
g2
(g10
g4
NtRp2007
(dp2008
g13
F1
sbsbsg14
F-0.7317342781318299
sg15
S'y'
sg16
g2
(g10
g4
NtRp2009
(dp2010
g13
F0
sbsbsbsg14
F-0.66970746502918566
sg15
S'y'
sg16
g2
(g3
g4
NtRp2011
(dp2012
g7
g2
(g3
g4
NtRp2013
(dp2014
g7
g2
(g10
g4
NtRp2015
(dp2016
g13
F0
sbsg14
F-0.51790652368307422
sg15
S'y'
sg16
g2
(g3
g4
NtRp2017
(dp2018
g7
g2
(g3
g4
NtRp2019
(dp2020
g7
g2
(g3
g4
NtRp2021
(dp2022
g7
g2
(g3
g4
NtRp2023
(dp2024
g7
g2
(g3
g4
NtRp2025
(dp2026
g7
g2
(g10
g4
NtRp2027
(dp2028
g13
F0
sbsg14
F-1.0445488290527787
sg15
S'x'
sg16
g2
(g10
g4
NtRp2029
(dp2030
g13
F1
sbsbsg14
F-0.45816160635860204
sg15
S'y'
sg16
g2
(g3
g4
NtRp2031
(dp2032
g7
g2
(g10
g4
NtRp2033
(dp2034
g13
F0
sbsg14
F-1.5786951245811083
sg15
S'x'
sg16
g2
(g10
g4
NtRp2035
(dp2036
g13
F1
sbsbsbsg14
F-0.39065139835743423
sg15
S'y'
sg16
g2
(g3
g4
NtRp2037
(dp2038
g7
g2
(g3
g4
NtRp2039
(dp2040
g7
g2
(g3
g4
NtRp2041
(dp2042
g7
g2
(g3
g4
NtRp2043
(dp2044
g7
g2
(g3
g4
NtRp2045
(dp2046
g7
g2
(g3
g4
NtRp2047
(dp2048
g7
g2
(g10
g4
NtRp2049
(dp2050
g13
F0
sbsg14
F-0.34733818826529106
sg15
S'y'
sg16
g2
(g3
g4
NtRp2051
(dp2052
g7
g2
(g10
g4
NtRp2053
(dp2054
g13
F1
sbsg14
F-0.33193425809192334
sg15
S'y'
sg16
g2
(g3
g4
NtRp2055
(dp2056
g7
g2
(g3
g4
NtRp2057
(dp2058
g7
g2
(g10
g4
NtRp2059
(dp2060
g13
F0.33333333333333331
sbsg14
Nsg15
S'x'
sg16
g2
(g10
g4
NtRp2061
(dp2062
g13
F0
sbsbsg14
F-0.26789556201165698
sg15
S'y'
sg16
g2
(g10
g4
NtRp2063
(dp2064
g13
F0.5
sbsbsbsbsg14
F-0.70823563025416236
sg15
S'x'
sg16
g2
(g10
g4
NtRp2065
(dp2066
g13
F1
sbsbsg14
F-0.24107580481999502
sg15
S'y'
sg16
g2
(g10
g4
NtRp2067
(dp2068
g13
F0
sbsbsg14
F-0.2387787081211985
sg15
S'y'
sg16
g2
(g10
g4
NtRp2069
(dp2070
g13
F1
sbsbsg14
F-0.21796986187426626
sg15
S'y'
sg16
g2
(g3
g4
NtRp2071
(dp2072
g7
g2
(g10
g4
NtRp2073
(dp2074
g13
F0
sbsg14
F-0.18536793753613923
sg15
S'y'
sg16
g2
(g3
g4
NtRp2075
(dp2076
g7
g2
(g3
g4
NtRp2077
(dp2078
g7
g2
(g3
g4
NtRp2079
(dp2080
g7
g2
(g10
g4
NtRp2081
(dp2082
g13
F0.5
sbsg14
Nsg15
S'x'
sg16
g2
(g10
g4
NtRp2083
(dp2084
g13
F0
sbsbsg14
F-0.87831504909186142
sg15
S'x'
sg16
g2
(g10
g4
NtRp2085
(dp2086
g13
F1
sbsbsg14
F-0.12664421184949592
sg15
S'y'
sg16
g2
(g3
g4
NtRp2087
(dp2088
g7
g2
(g10
g4
NtRp2089
(dp2090
g13
F0
sbsg14
F-0.97933253428985889
sg15
S'x'
sg16
g2
(g10
g4
NtRp2091
(dp2092
g13
F1
sbsbsbsbsbsg14
F-0.093541118262325806
sg15
S'y'
sg16
g2
(g3
g4
NtRp2093
(dp2094
g7
g2
(g3
g4
NtRp2095
(dp2096
g7
g2
(g3
g4
NtRp2097
(dp2098
g7
g2
(g10
g4
NtRp2099
(dp2100
g13
F1
sbsg14
F-0.085436205110429597
sg15
S'y'
sg16
g2
(g10
g4
NtRp2101
(dp2102
g13
F0.33333333333333331
sbsbsg14
F-0.080493626089515047
sg15
S'y'
sg16
g2
(g10
g4
NtRp2103
(dp2104
g13
F1
sbsbsg14
F-0.032123204759161528
sg15
S'y'
sg16
g2
(g3
g4
NtRp2105
(dp2106
g7
g2
(g10
g4
NtRp2107
(dp2108
g13
F0
sbsg14
F-1.4674354357435866
sg15
S'x'
sg16
g2
(g3
g4
NtRp2109
(dp2110
g7
g2
(g10
g4
NtRp2111
(dp2112
g13
F0
sbsg14
F-1.4397526828055014
sg15
S'x'
sg16
g2
(g10
g4
NtRp2113
(dp2114
g13
F1
sbsbsbsbsbsbsg14
F0.073757854074751439
sg15
S'y'
sg16
g2
(g3
g4
NtRp2115
(dp2116
g7
g2
(g10
g4
NtRp2117
(dp2118
g13
F0
sbsg14
F0.12221205930967827
sg15
S'y'
sg16
g2
(g3
g4
NtRp2119
(dp2120
g7
g2
(g10
g4
NtRp2121
(dp2122
g13
F0
sbsg14
F-1.026924584711308
sg15
S'x'
sg16
g2
(g3
g4
NtRp2123
(dp2124
g7
g2
(g10
g4
NtRp2125
(dp2126
g13
F1
sbsg14
F0.024683192215477323
sg15
S'x'
sg16
g2
(g10
g4
NtRp2127
(dp2128
g13
F0
sbsbsbsbsbsg14
F0.44204083949701989
sg15
S'x'
sg16
g2
(g10
g4
NtRp2129
(dp2130
g13
F0
sbsbsbsg14
F0.32483027858008295
sg15
S'y'
sg16
g2
(g3
g4
NtRp2131
(dp2132
g7
g2
(g3
g4
NtRp2133
(dp2134
g7
g2
(g10
g4
NtRp2135
(dp2136
g13
F0
sbsg14
F-0.29353269765430712
sg15
S'x'
sg16
g2
(g3
g4
NtRp2137
(dp2138
g7
g2
(g3
g4
NtRp2139
(dp2140
g7
g2
(g10
g4
NtRp2141
(dp2142
g13
F1
sbsg14
F0.45507281866429006
sg15
S'y'
sg16
g2
(g10
g4
NtRp2143
(dp2144
g13
F0
sbsbsg14
F-0.26802057157969683
sg15
S'x'
sg16
g2
(g3
g4
NtRp2145
(dp2146
g7
g2
(g10
g4
NtRp2147
(dp2148
g13
F0
sbsg14
F0.062099732929016049
sg15
S'x'
sg16
g2
(g3
g4
NtRp2149
(dp2150
g7
g2
(g10
g4
NtRp2151
(dp2152
g13
F0.25
sbsg14
F0.098039041075185462
sg15
S'x'
sg16
g2
(g10
g4
NtRp2153
(dp2154
g13
F0
sbsbsbsbsbsg14
F0.31987464214897665
sg15
S'x'
sg16
g2
(g10
g4
NtRp2155
(dp2156
g13
F0
sbsbsbsbag2
(g3
g4
NtRp2157
(dp2158
g7
g2
(g3
g4
NtRp2159
(dp2160
g7
g2
(g3
g4
NtRp2161
(dp2162
g7
g2
(g10
g4
NtRp2163
(dp2164
g13
F0
sbsg14
F-0.44954493657738315
sg15
S'x'
sg16
g2
(g3
g4
NtRp2165
(dp2166
g7
g2
(g10
g4
NtRp2167
(dp2168
g13
F0
sbsg14
F-0.74169687848698995
sg15
S'y'
sg16
g2
(g3
g4
NtRp2169
(dp2170
g7
g2
(g10
g4
NtRp2171
(dp2172
g13
F1
sbsg14
F-0.38777710893655026
sg15
S'x'
sg16
g2
(g10
g4
NtRp2173
(dp2174
g13
F0
sbsbsbsbsg14
F-0.63049426542349174
sg15
S'y'
sg16
g2
(g3
g4
NtRp2175
(dp2176
g7
g2
(g3
g4
NtRp2177
(dp2178
g7
g2
(g10
g4
NtRp2179
(dp2180
g13
F0
sbsg14
F-0.51790652368307422
sg15
S'y'
sg16
g2
(g3
g4
NtRp2181
(dp2182
g7
g2
(g3
g4
NtRp2183
(dp2184
g7
g2
(g3
g4
NtRp2185
(dp2186
g7
g2
(g10
g4
NtRp2187
(dp2188
g13
F0
sbsg14
F-0.3693044499481597
sg15
S'y'
sg16
g2
(g3
g4
NtRp2189
(dp2190
g7
g2
(g3
g4
NtRp2191
(dp2192
g7
g2
(g10
g4
NtRp2193
(dp2194
g13
F0.25
sbsg14
F-0.31462338262055756
sg15
S'y'
sg16
g2
(g10
g4
NtRp2195
(dp2196
g13
F1
sbsbsg14
F-0.31322227368403244
sg15
S'y'
sg16
g2
(g3
g4
NtRp2197
(dp2198
g7
g2
(g3
g4
NtRp2199
(dp2200
g7
g2
(g10
g4
NtRp2201
(dp2202
g13
F0
sbsg14
F-0.26789556201165698
sg15
S'y'
sg16
g2
(g10
g4
NtRp2203
(dp2204
g13
F0.5
sbsbsg14
Nsg15
S'x'
sg16
g2
(g10
g4
NtRp2205
(dp2206
g13
F0
sbsbsbsbsg14
F-0.11441991391637307
sg15
S'y'
sg16
g2
(g10
g4
NtRp2207
(dp2208
g13
F0
sbsbsg14
F-0.87831504909186142
sg15
S'x'
sg16
g2
(g3
g4
NtRp2209
(dp2210
g7
g2
(g3
g4
NtRp2211
(dp2212
g7
g2
(g3
g4
NtRp2213
(dp2214
g7
g2
(g3
g4
NtRp2215
(dp2216
g7
g2
(g10
g4
NtRp2217
(dp2218
g13
F0
sbsg14
F-0.74490210698249104
sg15
S'x'
sg16
g2
(g10
g4
NtRp2219
(dp2220
g13
F1
sbsbsg14
F-0.33364912597397067
sg15
S'y'
sg16
g2
(g10
g4
NtRp2221
(dp2222
g13
F0
sbsbsg14
F-0.31748839152106711
sg15
S'y'
sg16
g2
(g10
g4
NtRp2223
(dp2224
g13
F1
sbsbsg14
F0.26437770383656334
sg15
S'x'
sg16
g2
(g3
g4
NtRp2225
(dp2226
g7
g2
(g3
g4
NtRp2227
(dp2228
g7
g2
(g10
g4
NtRp2229
(dp2230
g13
F0.33333333333333331
sbsg14
F-0.3236622340326476
sg15
S'y'
sg16
g2
(g10
g4
NtRp2231
(dp2232
g13
F1
sbsbsg14
F-0.14543972510357595
sg15
S'y'
sg16
g2
(g10
g4
NtRp2233
(dp2234
g13
F0
sbsbsbsbsbsg14
F0.32483027858008295
sg15
S'y'
sg16
g2
(g3
g4
NtRp2235
(dp2236
g7
g2
(g3
g4
NtRp2237
(dp2238
g7
g2
(g10
g4
NtRp2239
(dp2240
g13
F0
sbsg14
F-0.43122350203900917
sg15
S'x'
sg16
g2
(g3
g4
NtRp2241
(dp2242
g7
g2
(g10
g4
NtRp2243
(dp2244
g13
F0.66666666666666663
sbsg14
F0.094933463639929272
sg15
S'x'
sg16
g2
(g10
g4
NtRp2245
(dp2246
g13
F0
sbsbsbsg14
F0.49283094488039092
sg15
S'y'
sg16
g2
(g10
g4
NtRp2247
(dp2248
g13
F0
sbsbsbsbsg14
F0.60671237856362481
sg15
S'x'
sg16
g2
(g10
g4
NtRp2249
(dp2250
g13
F0
sbsbag2
(g3
g4
NtRp2251
(dp2252
g7
g2
(g3
g4
NtRp2253
(dp2254
g7
g2
(g3
g4
NtRp2255
(dp2256
g7
g2
(g3
g4
NtRp2257
(dp2258
g7
g2
(g3
g4
NtRp2259
(dp2260
g7
g2
(g10
g4
NtRp2261
(dp2262
g13
F0
sbsg14
F-0.50058160477612068
sg15
S'y'
sg16
g2
(g3
g4
NtRp2263
(dp2264
g7
g2
(g3
g4
NtRp2265
(dp2266
g7
g2
(g3
g4
NtRp2267
(dp2268
g7
g2
(g3
g4
NtRp2269
(dp2270
g7
g2
(g10
g4
NtRp2271
(dp2272
g13
F1
sbsg14
F-0.33193425809192334
sg15
S'y'
sg16
g2
(g3
g4
NtRp2273
(dp2274
g7
g2
(g10
g4
NtRp2275
(dp2276
g13
F0
sbsg14
F-0.31462338262055756
sg15
S'y'
sg16
g2
(g10
g4
NtRp2277
(dp2278
g13
F0.5
sbsbsbsg14
F-0.2387787081211985
sg15
S'y'
sg16
g2
(g10
g4
NtRp2279
(dp2280
g13
F1
sbsbsg14
F-0.18459209796258991
sg15
S'y'
sg16
g2
(g10
g4
NtRp2281
(dp2282
g13
F0
sbsbsg14
F-0.099012741089279377
sg15
S'y'
sg16
g2
(g10
g4
NtRp2283
(dp2284
g13
F0
sbsbsbsg14
Nsg15
S'x'
sg16
g2
(g10
g4
NtRp2285
(dp2286
g13
F0
sbsbsg14
F-0.82281455012760096
sg15
S'x'
sg16
g2
(g3
g4
NtRp2287
(dp2288
g7
g2
(g3
g4
NtRp2289
(dp2290
g7
g2
(g3
g4
NtRp2291
(dp2292
g7
g2
(g10
g4
NtRp2293
(dp2294
g13
F0
sbsg14
F-0.78580941099981771
sg15
S'x'
sg16
g2
(g3
g4
NtRp2295
(dp2296
g7
g2
(g3
g4
NtRp2297
(dp2298
g7
g2
(g10
g4
NtRp2299
(dp2300
g13
F1
sbsg14
F-0.7844113536851447
sg15
S'x'
sg16
g2
(g3
g4
NtRp2301
(dp2302
g7
g2
(g10
g4
NtRp2303
(dp2304
g13
F0
sbsg14
F-0.78403758367392351
sg15
S'x'
sg16
g2
(g10
g4
NtRp2305
(dp2306
g13
F0.5
sbsbsbsg14
F-0.74933421802456834
sg15
S'x'
sg16
g2
(g10
g4
NtRp2307
(dp2308
g13
F1
sbsbsbsg14
F0.16979807948822767
sg15
S'y'
sg16
g2
(g10
g4
NtRp2309
(dp2310
g13
F0
sbsbsg14
F-0.74582139851372764
sg15
S'x'
sg16
g2
(g3
g4
NtRp2311
(dp2312
g7
g2
(g3
g4
NtRp2313
(dp2314
g7
g2
(g10
g4
NtRp2315
(dp2316
g13
F0
sbsg14
F-0.66372624378992828
sg15
S'x'
sg16
g2
(g3
g4
NtRp2317
(dp2318
g7
g2
(g10
g4
NtRp2319
(dp2320
g13
F1
sbsg14
F-0.65423859949522356
sg15
S'x'
sg16
g2
(g3
g4
NtRp2321
(dp2322
g7
g2
(g3
g4
NtRp2323
(dp2324
g7
g2
(g10
g4
NtRp2325
(dp2326
g13
F0
sbsg14
F-0.70371872581783723
sg15
S'y'
sg16
g2
(g10
g4
NtRp2327
(dp2328
g13
F1
sbsbsg14
F-0.48282919408366265
sg15
S'x'
sg16
g2
(g10
g4
NtRp2329
(dp2330
g13
F0
sbsbsbsbsg14
F0.22022344640722391
sg15
S'y'
sg16
g2
(g10
g4
NtRp2331
(dp2332
g13
F0
sbsbsbsbsg14
F-0.45528213025468123
sg15
S'x'
sg16
g2
(g3
g4
NtRp2333
(dp2334
g7
g2
(g3
g4
NtRp2335
(dp2336
g7
g2
(g3
g4
NtRp2337
(dp2338
g7
g2
(g3
g4
NtRp2339
(dp2340
g7
g2
(g10
g4
NtRp2341
(dp2342
g13
F0
sbsg14
F-1.1731770802068935
sg15
S'y'
sg16
g2
(g3
g4
NtRp2343
(dp2344
g7
g2
(g10
g4
NtRp2345
(dp2346
g13
F0
sbsg14
F-0.44904324899950376
sg15
S'x'
sg16
g2
(g3
g4
NtRp2347
(dp2348
g7
g2
(g10
g4
NtRp2349
(dp2350
g13
F0.75
sbsg14
F-0.41601877981873692
sg15
S'x'
sg16
g2
(g10
g4
NtRp2351
(dp2352
g13
F0
sbsbsbsbsg14
F-0.41517762852182294
sg15
S'x'
sg16
g2
(g10
g4
NtRp2353
(dp2354
g13
F1
sbsbsg14
F-0.40357010272059135
sg15
S'x'
sg16
g2
(g3
g4
NtRp2355
(dp2356
g7
g2
(g10
g4
NtRp2357
(dp2358
g13
F0
sbsg14
F-0.39259155167440785
sg15
S'x'
sg16
g2
(g3
g4
NtRp2359
(dp2360
g7
g2
(g3
g4
NtRp2361
(dp2362
g7
g2
(g3
g4
NtRp2363
(dp2364
g7
g2
(g3
g4
NtRp2365
(dp2366
g7
g2
(g10
g4
NtRp2367
(dp2368
g13
F1
sbsg14
F-0.38777710893655026
sg15
S'x'
sg16
g2
(g3
g4
NtRp2369
(dp2370
g7
g2
(g3
g4
NtRp2371
(dp2372
g7
g2
(g10
g4
NtRp2373
(dp2374
g13
F0.25
sbsg14
F-0.373776822619865
sg15
S'x'
sg16
g2
(g10
g4
NtRp2375
(dp2376
g13
F0
sbsbsg14
F-0.34682425909113368
sg15
S'x'
sg16
g2
(g3
g4
NtRp2377
(dp2378
g7
g2
(g3
g4
NtRp2379
(dp2380
g7
g2
(g3
g4
NtRp2381
(dp2382
g7
g2
(g10
g4
NtRp2383
(dp2384
g13
F0
sbsg14
F-0.74169687848698995
sg15
S'y'
sg16
g2
(g10
g4
NtRp2385
(dp2386
g13
F1
sbsbsg14
F-0.30209176488633149
sg15
S'x'
sg16
g2
(g10
g4
NtRp2387
(dp2388
g13
F1
sbsbsg14
F0.30444199660335558
sg15
S'y'
sg16
g2
(g10
g4
NtRp2389
(dp2390
g13
F0
sbsbsbsbsg14
F-0.27459090900817085
sg15
S'x'
sg16
g2
(g10
g4
NtRp2391
(dp2392
g13
F1
sbsbsg14
F-0.26802057157969683
sg15
S'x'
sg16
g2
(g3
g4
NtRp2393
(dp2394
g7
g2
(g10
g4
NtRp2395
(dp2396
g13
F0
sbsg14
F-0.72243510821205259
sg15
S'y'
sg16
g2
(g3
g4
NtRp2397
(dp2398
g7
g2
(g10
g4
NtRp2399
(dp2400
g13
F1
sbsg14
F0.31921539511580521
sg15
S'y'
sg16
g2
(g10
g4
NtRp2401
(dp2402
g13
F0
sbsbsbsbsg14
F-0.18799558121906523
sg15
S'x'
sg16
g2
(g3
g4
NtRp2403
(dp2404
g7
g2
(g3
g4
NtRp2405
(dp2406
g7
g2
(g10
g4
NtRp2407
(dp2408
g13
F0
sbsg14
F-0.5464261295346331
sg15
S'y'
sg16
g2
(g3
g4
NtRp2409
(dp2410
g7
g2
(g10
g4
NtRp2411
(dp2412
g13
F0
sbsg14
F-0.51790652368307422
sg15
S'y'
sg16
g2
(g3
g4
NtRp2413
(dp2414
g7
g2
(g10
g4
NtRp2415
(dp2416
g13
F1
sbsg14
F0.054221070855285269
sg15
S'x'
sg16
g2
(g3
g4
NtRp2417
(dp2418
g7
g2
(g10
g4
NtRp2419
(dp2420
g13
F0.66666666666666663
sbsg14
F0.087597574614866058
sg15
S'x'
sg16
g2
(g10
g4
NtRp2421
(dp2422
g13
F1
sbsbsbsbsbsg14
F0.44333373954247035
sg15
S'y'
sg16
g2
(g10
g4
NtRp2423
(dp2424
g13
F0
sbsbsbsbsbsg14
F0.17464878536089801
sg15
S'x'
sg16
g2
(g3
g4
NtRp2425
(dp2426
g7
g2
(g3
g4
NtRp2427
(dp2428
g7
g2
(g10
g4
NtRp2429
(dp2430
g13
F0
sbsg14
F-0.51792714617070201
sg15
S'y'
sg16
g2
(g3
g4
NtRp2431
(dp2432
g7
g2
(g10
g4
NtRp2433
(dp2434
g13
F1
sbsg14
F0.015472705653512886
sg15
S'y'
sg16
g2
(g10
g4
NtRp2435
(dp2436
g13
F0
sbsbsbsg14
F0.14053565166158855
sg15
S'y'
sg16
g2
(g10
g4
NtRp2437
(dp2438
g13
F0
sbsbsbsbsg14
F0.31987464214897665
sg15
S'x'
sg16
g2
(g3
g4
NtRp2439
(dp2440
g7
g2
(g3
g4
NtRp2441
(dp2442
g7
g2
(g10
g4
NtRp2443
(dp2444
g13
F0
sbsg14
F0.41881881722202285
sg15
S'x'
sg16
g2
(g10
g4
NtRp2445
(dp2446
g13
F0.25
sbsbsg14
F0.43917938979177595
sg15
S'x'
sg16
g2
(g10
g4
NtRp2447
(dp2448
g13
F0
sbsbsbag2
(g3
g4
NtRp2449
(dp2450
g7
g2
(g3
g4
NtRp2451
(dp2452
g7
g2
(g10
g4
NtRp2453
(dp2454
g13
F0
sbsg14
F-0.78662261672150313
sg15
S'y'
sg16
g2
(g3
g4
NtRp2455
(dp2456
g7
g2
(g3
g4
NtRp2457
(dp2458
g7
g2
(g3
g4
NtRp2459
(dp2460
g7
g2
(g10
g4
NtRp2461
(dp2462
g13
F0
sbsg14
F-0.73419221392083278
sg15
S'y'
sg16
g2
(g10
g4
NtRp2463
(dp2464
g13
F1
sbsbsg14
F-0.7317342781318299
sg15
S'y'
sg16
g2
(g10
g4
NtRp2465
(dp2466
g13
F0
sbsbsg14
F-0.38777710893655026
sg15
S'x'
sg16
g2
(g10
g4
NtRp2467
(dp2468
g13
F0
sbsbsbsg14
F-0.51790652368307422
sg15
S'y'
sg16
g2
(g3
g4
NtRp2469
(dp2470
g7
g2
(g3
g4
NtRp2471
(dp2472
g7
g2
(g3
g4
NtRp2473
(dp2474
g7
g2
(g3
g4
NtRp2475
(dp2476
g7
g2
(g3
g4
NtRp2477
(dp2478
g7
g2
(g3
g4
NtRp2479
(dp2480
g7
g2
(g3
g4
NtRp2481
(dp2482
g7
g2
(g3
g4
NtRp2483
(dp2484
g7
g2
(g3
g4
NtRp2485
(dp2486
g7
g2
(g10
g4
NtRp2487
(dp2488
g13
F0
sbsg14
F-0.50058160477612068
sg15
S'y'
sg16
g2
(g3
g4
NtRp2489
(dp2490
g7
g2
(g10
g4
NtRp2491
(dp2492
g13
F1
sbsg14
F-0.33193425809192334
sg15
S'y'
sg16
g2
(g10
g4
NtRp2493
(dp2494
g13
F0.5
sbsbsbsg14
F-0.2455678552169398
sg15
S'y'
sg16
g2
(g10
g4
NtRp2495
(dp2496
g13
F0
sbsbsg14
Nsg15
S'x'
sg16
g2
(g10
g4
NtRp2497
(dp2498
g13
F0
sbsbsg14
F-0.18536793753613923
sg15
S'y'
sg16
g2
(g10
g4
NtRp2499
(dp2500
g13
F0.5
sbsbsg14
F-0.1831796221004276
sg15
S'y'
sg16
g2
(g10
g4
NtRp2501
(dp2502
g13
F0
sbsbsg14
F-0.87831504909186142
sg15
S'x'
sg16
g2
(g3
g4
NtRp2503
(dp2504
g7
g2
(g10
g4
NtRp2505
(dp2506
g13
F0.33333333333333331
sbsg14
F-0.31748839152106711
sg15
S'y'
sg16
g2
(g10
g4
NtRp2507
(dp2508
g13
F1
sbsbsbsg14
F0.079286294675279922
sg15
S'y'
sg16
g2
(g3
g4
NtRp2509
(dp2510
g7
g2
(g10
g4
NtRp2511
(dp2512
g13
F0
sbsg14
F-0.7578797674527058
sg15
S'x'
sg16
g2
(g3
g4
NtRp2513
(dp2514
g7
g2
(g10
g4
NtRp2515
(dp2516
g13
F1
sbsg14
F-0.74582139851372764
sg15
S'x'
sg16
g2
(g10
g4
NtRp2517
(dp2518
g13
F0
sbsbsbsbsg14
F-0.53925671954925258
sg15
S'x'
sg16
g2
(g3
g4
NtRp2519
(dp2520
g7
g2
(g3
g4
NtRp2521
(dp2522
g7
g2
(g3
g4
NtRp2523
(dp2524
g7
g2
(g10
g4
NtRp2525
(dp2526
g13
F1
sbsg14
F0.31921539511580521
sg15
S'y'
sg16
g2
(g10
g4
NtRp2527
(dp2528
g13
F0.33333333333333331
sbsbsg14
F0.2121238669701726
sg15
S'x'
sg16
g2
(g3
g4
NtRp2529
(dp2530
g7
g2
(g10
g4
NtRp2531
(dp2532
g13
F1
sbsg14
F0.015472705653512886
sg15
S'y'
sg16
g2
(g10
g4
NtRp2533
(dp2534
g13
F0
sbsbsbsg14
F0.44973656249013683
sg15
S'y'
sg16
g2
(g3
g4
NtRp2535
(dp2536
g7
g2
(g10
g4
NtRp2537
(dp2538
g13
F0.25
sbsg14
F0.50573687661442124
sg15
S'y'
sg16
g2
(g10
g4
NtRp2539
(dp2540
g13
F0
sbsbsbsbsg14
F0.37159151149526704
sg15
S'x'
sg16
g2
(g3
g4
NtRp2541
(dp2542
g7
g2
(g3
g4
NtRp2543
(dp2544
g7
g2
(g10
g4
NtRp2545
(dp2546
g13
F0.5
sbsg14
F0.51429562294366482
sg15
S'x'
sg16
g2
(g10
g4
NtRp2547
(dp2548
g13
F0
sbsbsg14
F-0.14220867877215992
sg15
S'y'
sg16
g2
(g10
g4
NtRp2549
(dp2550
g13
F0
sbsbsbsbag2
(g3
g4
NtRp2551
(dp2552
g7
g2
(g3
g4
NtRp2553
(dp2554
g7
g2
(g3
g4
NtRp2555
(dp2556
g7
g2
(g3
g4
NtRp2557
(dp2558
g7
g2
(g3
g4
NtRp2559
(dp2560
g7
g2
(g10
g4
NtRp2561
(dp2562
g13
F0
sbsg14
F-0.50058160477612068
sg15
S'y'
sg16
g2
(g3
g4
NtRp2563
(dp2564
g7
g2
(g3
g4
NtRp2565
(dp2566
g7
g2
(g3
g4
NtRp2567
(dp2568
g7
g2
(g10
g4
NtRp2569
(dp2570
g13
F1
sbsg14
F-0.33193425809192334
sg15
S'y'
sg16
g2
(g3
g4
NtRp2571
(dp2572
g7
g2
(g10
g4
NtRp2573
(dp2574
g13
F0
sbsg14
F-0.31462338262055756
sg15
S'y'
sg16
g2
(g10
g4
NtRp2575
(dp2576
g13
F0.5
sbsbsbsg14
F-0.2387787081211985
sg15
S'y'
sg16
g2
(g10
g4
NtRp2577
(dp2578
g13
F1
sbsbsg14
F-0.18459209796258991
sg15
S'y'
sg16
g2
(g10
g4
NtRp2579
(dp2580
g13
F0
sbsbsbsg14
Nsg15
S'x'
sg16
g2
(g10
g4
NtRp2581
(dp2582
g13
F0
sbsbsg14
F-0.82242024356403221
sg15
S'x'
sg16
g2
(g3
g4
NtRp2583
(dp2584
g7
g2
(g3
g4
NtRp2585
(dp2586
g7
g2
(g3
g4
NtRp2587
(dp2588
g7
g2
(g10
g4
NtRp2589
(dp2590
g13
F0
sbsg14
F-0.78580941099981771
sg15
S'x'
sg16
g2
(g3
g4
NtRp2591
(dp2592
g7
g2
(g10
g4
NtRp2593
(dp2594
g13
F0
sbsg14
F-1.2273913098513516
sg15
S'y'
sg16
g2
(g10
g4
NtRp2595
(dp2596
g13
F1
sbsbsbsg14
F0.16979807948822767
sg15
S'y'
sg16
g2
(g10
g4
NtRp2597
(dp2598
g13
F0
sbsbsg14
F-0.74582139851372764
sg15
S'x'
sg16
g2
(g10
g4
NtRp2599
(dp2600
g13
F0
sbsbsbsg14
F-0.65543906663347329
sg15
S'x'
sg16
g2
(g3
g4
NtRp2601
(dp2602
g7
g2
(g3
g4
NtRp2603
(dp2604
g7
g2
(g3
g4
NtRp2605
(dp2606
g7
g2
(g10
g4
NtRp2607
(dp2608
g13
F0
sbsg14
F-0.70371872581783723
sg15
S'y'
sg16
g2
(g10
g4
NtRp2609
(dp2610
g13
F1
sbsbsg14
F0.22022344640722391
sg15
S'y'
sg16
g2
(g10
g4
NtRp2611
(dp2612
g13
F0
sbsbsg14
F-0.44954493657738315
sg15
S'x'
sg16
g2
(g3
g4
NtRp2613
(dp2614
g7
g2
(g3
g4
NtRp2615
(dp2616
g7
g2
(g3
g4
NtRp2617
(dp2618
g7
g2
(g3
g4
NtRp2619
(dp2620
g7
g2
(g10
g4
NtRp2621
(dp2622
g13
F0
sbsg14
F-1.1731770802068935
sg15
S'y'
sg16
g2
(g10
g4
NtRp2623
(dp2624
g13
F1
sbsbsg14
F-0.38444525155307119
sg15
S'x'
sg16
g2
(g10
g4
NtRp2625
(dp2626
g13
F0
sbsbsg14
F-0.51790652368307422
sg15
S'y'
sg16
g2
(g3
g4
NtRp2627
(dp2628
g7
g2
(g3
g4
NtRp2629
(dp2630
g7
g2
(g3
g4
NtRp2631
(dp2632
g7
g2
(g10
g4
NtRp2633
(dp2634
g13
F0.5
sbsg14
F-0.43122350203900917
sg15
S'x'
sg16
g2
(g10
g4
NtRp2635
(dp2636
g13
F1
sbsbsg14
F-0.4145081219813922
sg15
S'x'
sg16
g2
(g3
g4
NtRp2637
(dp2638
g7
g2
(g10
g4
NtRp2639
(dp2640
g13
F1
sbsg14
F0.31921539511580521
sg15
S'y'
sg16
g2
(g10
g4
NtRp2641
(dp2642
g13
F0.66666666666666663
sbsbsbsg14
F0.2121238669701726
sg15
S'x'
sg16
g2
(g3
g4
NtRp2643
(dp2644
g7
g2
(g10
g4
NtRp2645
(dp2646
g13
F1
sbsg14
F0.015472705653512886
sg15
S'y'
sg16
g2
(g10
g4
NtRp2647
(dp2648
g13
F0
sbsbsbsbsg14
F0.45507281866429006
sg15
S'y'
sg16
g2
(g10
g4
NtRp2649
(dp2650
g13
F0
sbsbsbsbsg14
F0.29497841446660411
sg15
S'x'
sg16
g2
(g3
g4
NtRp2651
(dp2652
g7
g2
(g3
g4
NtRp2653
(dp2654
g7
g2
(g3
g4
NtRp2655
(dp2656
g7
g2
(g10
g4
NtRp2657
(dp2658
g13
F0
sbsg14
F-0.30210262714583402
sg15
S'y'
sg16
g2
(g3
g4
NtRp2659
(dp2660
g7
g2
(g10
g4
NtRp2661
(dp2662
g13
F0.33333333333333331
sbsg14
F-0.26623522278699951
sg15
S'y'
sg16
g2
(g10
g4
NtRp2663
(dp2664
g13
F0
sbsbsbsg14
F-0.14978027531054394
sg15
S'y'
sg16
g2
(g10
g4
NtRp2665
(dp2666
g13
F0.5
sbsbsg14
F-0.14220867877215992
sg15
S'y'
sg16
g2
(g10
g4
NtRp2667
(dp2668
g13
F0
sbsbsbag2
(g3
g4
NtRp2669
(dp2670
g7
g2
(g3
g4
NtRp2671
(dp2672
g7
g2
(g3
g4
NtRp2673
(dp2674
g7
g2
(g10
g4
NtRp2675
(dp2676
g13
F0
sbsg14
F-0.34733818826529106
sg15
S'y'
sg16
g2
(g3
g4
NtRp2677
(dp2678
g7
g2
(g3
g4
NtRp2679
(dp2680
g7
g2
(g3
g4
NtRp2681
(dp2682
g7
g2
(g3
g4
NtRp2683
(dp2684
g7
g2
(g10
g4
NtRp2685
(dp2686
g13
F1
sbsg14
F-0.33193425809192334
sg15
S'y'
sg16
g2
(g3
g4
NtRp2687
(dp2688
g7
g2
(g10
g4
NtRp2689
(dp2690
g13
F0.33333333333333331
sbsg14
F-0.31322227368403244
sg15
S'y'
sg16
g2
(g10
g4
NtRp2691
(dp2692
g13
F0
sbsbsbsg14
F-0.26789556201165698
sg15
S'y'
sg16
g2
(g10
g4
NtRp2693
(dp2694
g13
F1
sbsbsg14
F-0.2455678552169398
sg15
S'y'
sg16
g2
(g3
g4
NtRp2695
(dp2696
g7
g2
(g3
g4
NtRp2697
(dp2698
g7
g2
(g10
g4
NtRp2699
(dp2700
g13
F0
sbsg14
F-0.18536793753613923
sg15
S'y'
sg16
g2
(g10
g4
NtRp2701
(dp2702
g13
F1
sbsbsg14
F-0.18459209796258991
sg15
S'y'
sg16
g2
(g10
g4
NtRp2703
(dp2704
g13
F0
sbsbsbsg14
F-0.82649137875645051
sg15
S'x'
sg16
g2
(g3
g4
NtRp2705
(dp2706
g7
g2
(g3
g4
NtRp2707
(dp2708
g7
g2
(g10
g4
NtRp2709
(dp2710
g13
F0
sbsg14
F-0.31748839152106711
sg15
S'y'
sg16
g2
(g3
g4
NtRp2711
(dp2712
g7
g2
(g10
g4
NtRp2713
(dp2714
g13
F1
sbsg14
F-0.74582139851372764
sg15
S'x'
sg16
g2
(g10
g4
NtRp2715
(dp2716
g13
F0.66666666666666663
sbsbsbsg14
F0.40946466828761352
sg15
S'y'
sg16
g2
(g10
g4
NtRp2717
(dp2718
g13
F0
sbsbsbsbsg14
F-0.61501357910175125
sg15
S'x'
sg16
g2
(g3
g4
NtRp2719
(dp2720
g7
g2
(g3
g4
NtRp2721
(dp2722
g7
g2
(g3
g4
NtRp2723
(dp2724
g7
g2
(g3
g4
NtRp2725
(dp2726
g7
g2
(g10
g4
NtRp2727
(dp2728
g13
F0
sbsg14
F-0.78371209382454143
sg15
S'y'
sg16
g2
(g3
g4
NtRp2729
(dp2730
g7
g2
(g10
g4
NtRp2731
(dp2732
g13
F0
sbsg14
F-0.71922239325992177
sg15
S'y'
sg16
g2
(g10
g4
NtRp2733
(dp2734
g13
F1
sbsbsbsg14
F0.22022344640722391
sg15
S'y'
sg16
g2
(g10
g4
NtRp2735
(dp2736
g13
F0
sbsbsg14
F-0.42883004106130196
sg15
S'x'
sg16
g2
(g3
g4
NtRp2737
(dp2738
g7
g2
(g3
g4
NtRp2739
(dp2740
g7
g2
(g3
g4
NtRp2741
(dp2742
g7
g2
(g3
g4
NtRp2743
(dp2744
g7
g2
(g3
g4
NtRp2745
(dp2746
g7
g2
(g3
g4
NtRp2747
(dp2748
g7
g2
(g3
g4
NtRp2749
(dp2750
g7
g2
(g3
g4
NtRp2751
(dp2752
g7
g2
(g3
g4
NtRp2753
(dp2754
g7
g2
(g10
g4
NtRp2755
(dp2756
g13
F0
sbsg14
F-0.75596144678424171
sg15
S'y'
sg16
g2
(g3
g4
NtRp2757
(dp2758
g7
g2
(g10
g4
NtRp2759
(dp2760
g13
F0
sbsg14
F-0.74169687848698995
sg15
S'y'
sg16
g2
(g3
g4
NtRp2761
(dp2762
g7
g2
(g10
g4
NtRp2763
(dp2764
g13
F1
sbsg14
F0.17112873991864141
sg15
S'y'
sg16
g2
(g10
g4
NtRp2765
(dp2766
g13
F0
sbsbsbsbsg14
F-0.28668889192899361
sg15
S'x'
sg16
g2
(g10
g4
NtRp2767
(dp2768
g13
F1
sbsbsg14
F-0.26802057157969683
sg15
S'x'
sg16
g2
(g3
g4
NtRp2769
(dp2770
g7
g2
(g3
g4
NtRp2771
(dp2772
g7
g2
(g10
g4
NtRp2773
(dp2774
g13
F0
sbsg14
F-0.2194464310274733
sg15
S'x'
sg16
g2
(g3
g4
NtRp2775
(dp2776
g7
g2
(g10
g4
NtRp2777
(dp2778
g13
F1
sbsg14
F-0.21041961511052865
sg15
S'x'
sg16
g2
(g10
g4
NtRp2779
(dp2780
g13
F0
sbsbsbsg14
F-0.18799558121906523
sg15
S'x'
sg16
g2
(g3
g4
NtRp2781
(dp2782
g7
g2
(g10
g4
NtRp2783
(dp2784
g13
F0
sbsg14
F-1.0755052101245637
sg15
S'y'
sg16
g2
(g10
g4
NtRp2785
(dp2786
g13
F1
sbsbsbsbsg14
F-0.10690047198617769
sg15
S'x'
sg16
g2
(g10
g4
NtRp2787
(dp2788
g13
F1
sbsbsg14
F-0.066087717696164727
sg15
S'x'
sg16
g2
(g3
g4
NtRp2789
(dp2790
g7
g2
(g10
g4
NtRp2791
(dp2792
g13
F0
sbsg14
F-0.052432122550377436
sg15
S'x'
sg16
g2
(g3
g4
NtRp2793
(dp2794
g7
g2
(g10
g4
NtRp2795
(dp2796
g13
F0
sbsg14
F-1.00352447883499
sg15
S'y'
sg16
g2
(g10
g4
NtRp2797
(dp2798
g13
F1
sbsbsbsbsg14
F-0.027871672408695591
sg15
S'x'
sg16
g2
(g3
g4
NtRp2799
(dp2800
g7
g2
(g3
g4
NtRp2801
(dp2802
g7
g2
(g10
g4
NtRp2803
(dp2804
g13
F1
sbsg14
F0.0030673858559313594
sg15
S'x'
sg16
g2
(g10
g4
NtRp2805
(dp2806
g13
F0.75
sbsbsg14
F0.024683192215477323
sg15
S'x'
sg16
g2
(g3
g4
NtRp2807
(dp2808
g7
g2
(g3
g4
NtRp2809
(dp2810
g7
g2
(g10
g4
NtRp2811
(dp2812
g13
F0
sbsg14
F-0.51790652368307422
sg15
S'y'
sg16
g2
(g3
g4
NtRp2813
(dp2814
g7
g2
(g10
g4
NtRp2815
(dp2816
g13
F1
sbsg14
F0.37547643267317943
sg15
S'y'
sg16
g2
(g10
g4
NtRp2817
(dp2818
g13
F0
sbsbsbsg14
F0.1830636895919544
sg15
S'x'
sg16
g2
(g10
g4
NtRp2819
(dp2820
g13
F1
sbsbsbsbsg14
F0.2121238669701726
sg15
S'x'
sg16
g2
(g10
g4
NtRp2821
(dp2822
g13
F0
sbsbsg14
F0.24012784482696325
sg15
S'x'
sg16
g2
(g3
g4
NtRp2823
(dp2824
g7
g2
(g10
g4
NtRp2825
(dp2826
g13
F0
sbsg14
F-0.94849447997763603
sg15
S'y'
sg16
g2
(g3
g4
NtRp2827
(dp2828
g7
g2
(g10
g4
NtRp2829
(dp2830
g13
F1
sbsg14
F0.015472705653512886
sg15
S'y'
sg16
g2
(g10
g4
NtRp2831
(dp2832
g13
F0
sbsbsbsbsg14
F0.57614916082856782
sg15
S'y'
sg16
g2
(g10
g4
NtRp2833
(dp2834
g13
F0
sbsbsbsg14
F0.29497841446660411
sg15
S'x'
sg16
g2
(g3
g4
NtRp2835
(dp2836
g7
g2
(g3
g4
NtRp2837
(dp2838
g7
g2
(g10
g4
NtRp2839
(dp2840
g13
F0.25
sbsg14
F0.32718910891917252
sg15
S'x'
sg16
g2
(g3
g4
NtRp2841
(dp2842
g7
g2
(g10
g4
NtRp2843
(dp2844
g13
F0
sbsg14
F0.40635016081880648
sg15
S'x'
sg16
g2
(g3
g4
NtRp2845
(dp2846
g7
g2
(g10
g4
NtRp2847
(dp2848
g13
F0
sbsg14
F-0.72359688432942715
sg15
S'y'
sg16
g2
(g10
g4
NtRp2849
(dp2850
g13
F1
sbsbsbsbsg14
F-0.14543972510357595
sg15
S'y'
sg16
g2
(g10
g4
NtRp2851
(dp2852
g13
F0
sbsbsbsbsg14
F0.47238196990596348
sg15
S'x'
sg16
g2
(g10
g4
NtRp2853
(dp2854
g13
F0
sbsbag2
(g3
g4
NtRp2855
(dp2856
g7
g2
(g3
g4
NtRp2857
(dp2858
g7
g2
(g3
g4
NtRp2859
(dp2860
g7
g2
(g10
g4
NtRp2861
(dp2862
g13
F0
sbsg14
F-0.34733818826529106
sg15
S'y'
sg16
g2
(g3
g4
NtRp2863
(dp2864
g7
g2
(g3
g4
NtRp2865
(dp2866
g7
g2
(g3
g4
NtRp2867
(dp2868
g7
g2
(g10
g4
NtRp2869
(dp2870
g13
F1
sbsg14
F-0.33193425809192334
sg15
S'y'
sg16
g2
(g3
g4
NtRp2871
(dp2872
g7
g2
(g3
g4
NtRp2873
(dp2874
g7
g2
(g3
g4
NtRp2875
(dp2876
g7
g2
(g3
g4
NtRp2877
(dp2878
g7
g2
(g10
g4
NtRp2879
(dp2880
g13
F0.5
sbsg14
F-0.2455678552169398
sg15
S'y'
sg16
g2
(g10
g4
NtRp2881
(dp2882
g13
F0
sbsbsg14
F-0.2387787081211985
sg15
S'y'
sg16
g2
(g10
g4
NtRp2883
(dp2884
g13
F1
sbsbsg14
F-0.18459209796258991
sg15
S'y'
sg16
g2
(g10
g4
NtRp2885
(dp2886
g13
F0
sbsbsg14
Nsg15
S'x'
sg16
g2
(g10
g4
NtRp2887
(dp2888
g13
F0
sbsbsbsg14
F-0.97933253428985889
sg15
S'x'
sg16
g2
(g3
g4
NtRp2889
(dp2890
g7
g2
(g10
g4
NtRp2891
(dp2892
g13
F0.33333333333333331
sbsg14
F-0.17802348511929589
sg15
S'y'
sg16
g2
(g10
g4
NtRp2893
(dp2894
g13
F1
sbsbsbsg14
F0.18856316741949852
sg15
S'y'
sg16
g2
(g10
g4
NtRp2895
(dp2896
g13
F0
sbsbsbsg14
F-0.60722847172775474
sg15
S'x'
sg16
g2
(g3
g4
NtRp2897
(dp2898
g7
g2
(g3
g4
NtRp2899
(dp2900
g7
g2
(g3
g4
NtRp2901
(dp2902
g7
g2
(g3
g4
NtRp2903
(dp2904
g7
g2
(g10
g4
NtRp2905
(dp2906
g13
F0
sbsg14
F-0.75596144678424171
sg15
S'y'
sg16
g2
(g3
g4
NtRp2907
(dp2908
g7
g2
(g10
g4
NtRp2909
(dp2910
g13
F0.5
sbsg14
F-0.29640477294015399
sg15
S'x'
sg16
g2
(g10
g4
NtRp2911
(dp2912
g13
F0
sbsbsbsg14
F-0.50197163593519312
sg15
S'y'
sg16
g2
(g3
g4
NtRp2913
(dp2914
g7
g2
(g10
g4
NtRp2915
(dp2916
g13
F1
sbsg14
F0.18471432446111535
sg15
S'x'
sg16
g2
(g10
g4
NtRp2917
(dp2918
g13
F0.75
sbsbsbsg14
F0.37547643267317943
sg15
S'y'
sg16
g2
(g3
g4
NtRp2919
(dp2920
g7
g2
(g3
g4
NtRp2921
(dp2922
g7
g2
(g10
g4
NtRp2923
(dp2924
g13
F0
sbsg14
F-0.27459090900817085
sg15
S'x'
sg16
g2
(g10
g4
NtRp2925
(dp2926
g13
F1
sbsbsg14
F-0.26802057157969683
sg15
S'x'
sg16
g2
(g10
g4
NtRp2927
(dp2928
g13
F0
sbsbsbsg14
F0.26651798055091191
sg15
S'x'
sg16
g2
(g3
g4
NtRp2929
(dp2930
g7
g2
(g3
g4
NtRp2931
(dp2932
g7
g2
(g3
g4
NtRp2933
(dp2934
g7
g2
(g3
g4
NtRp2935
(dp2936
g7
g2
(g10
g4
NtRp2937
(dp2938
g13
F0
sbsg14
F-0.51792714617070201
sg15
S'y'
sg16
g2
(g10
g4
NtRp2939
(dp2940
g13
F1
sbsbsg14
F0.30723216421640043
sg15
S'x'
sg16
g2
(g10
g4
NtRp2941
(dp2942
g13
F1
sbsbsg14
F-0.14543972510357595
sg15
S'y'
sg16
g2
(g10
g4
NtRp2943
(dp2944
g13
F0
sbsbsg14
F0.31987464214897665
sg15
S'x'
sg16
g2
(g10
g4
NtRp2945
(dp2946
g13
F0
sbsbsbsbsg14
F0.35298141017095608
sg15
S'x'
sg16
g2
(g3
g4
NtRp2947
(dp2948
g7
g2
(g10
g4
NtRp2949
(dp2950
g13
F0
sbsg14
F-0.30502992486948655
sg15
S'y'
sg16
g2
(g3
g4
NtRp2951
(dp2952
g7
g2
(g3
g4
NtRp2953
(dp2954
g7
g2
(g10
g4
NtRp2955
(dp2956
g13
F0
sbsg14
F-0.27862477715362521
sg15
S'y'
sg16
g2
(g10
g4
NtRp2957
(dp2958
g13
F0.33333333333333331
sbsbsg14
F-0.26217796797775028
sg15
S'y'
sg16
g2
(g10
g4
NtRp2959
(dp2960
g13
F0
sbsbsbsbag2
(g3
g4
NtRp2961
(dp2962
g7
g2
(g3
g4
NtRp2963
(dp2964
g7
g2
(g3
g4
NtRp2965
(dp2966
g7
g2
(g10
g4
NtRp2967
(dp2968
g13
F0
sbsg14
F-0.75596144678424171
sg15
S'y'
sg16
g2
(g3
g4
NtRp2969
(dp2970
g7
g2
(g3
g4
NtRp2971
(dp2972
g7
g2
(g10
g4
NtRp2973
(dp2974
g13
F0
sbsg14
F-0.73419221392083278
sg15
S'y'
sg16
g2
(g10
g4
NtRp2975
(dp2976
g13
F1
sbsbsg14
F-0.7317342781318299
sg15
S'y'
sg16
g2
(g10
g4
NtRp2977
(dp2978
g13
F0
sbsbsbsg14
F-0.1507555327884833
sg15
S'x'
sg16
g2
(g10
g4
NtRp2979
(dp2980
g13
F0
sbsbsg14
F-0.57224031492210337
sg15
S'y'
sg16
g2
(g3
g4
NtRp2981
(dp2982
g7
g2
(g3
g4
NtRp2983
(dp2984
g7
g2
(g3
g4
NtRp2985
(dp2986
g7
g2
(g10
g4
NtRp2987
(dp2988
g13
F0
sbsg14
F-0.52308809967164382
sg15
S'y'
sg16
g2
(g3
g4
NtRp2989
(dp2990
g7
g2
(g3
g4
NtRp2991
(dp2992
g7
g2
(g3
g4
NtRp2993
(dp2994
g7
g2
(g10
g4
NtRp2995
(dp2996
g13
F0
sbsg14
F-0.36332515940874011
sg15
S'y'
sg16
g2
(g3
g4
NtRp2997
(dp2998
g7
g2
(g10
g4
NtRp2999
(dp3000
g13
F1
sbsg14
F-0.33193425809192334
sg15
S'y'
sg16
g2
(g3
g4
NtRp3001
(dp3002
g7
g2
(g3
g4
NtRp3003
(dp3004
g7
g2
(g3
g4
NtRp3005
(dp3006
g7
g2
(g10
g4
NtRp3007
(dp3008
g13
F0.33333333333333331
sbsg14
Nsg15
S'x'
sg16
g2
(g10
g4
NtRp3009
(dp3010
g13
F0
sbsbsg14
F-0.26789556201165698
sg15
S'y'
sg16
g2
(g10
g4
NtRp3011
(dp3012
g13
F1
sbsbsg14
F-0.2455678552169398
sg15
S'y'
sg16
g2
(g3
g4
NtRp3013
(dp3014
g7
g2
(g10
g4
NtRp3015
(dp3016
g13
F0
sbsg14
F-0.18536793753613923
sg15
S'y'
sg16
g2
(g10
g4
NtRp3017
(dp3018
g13
F0.33333333333333331
sbsbsbsbsbsg14
F-0.17802348511929589
sg15
S'y'
sg16
g2
(g10
g4
NtRp3019
(dp3020
g13
F0
sbsbsg14
F-0.87831504909186142
sg15
S'x'
sg16
g2
(g3
g4
NtRp3021
(dp3022
g7
g2
(g10
g4
NtRp3023
(dp3024
g13
F0
sbsg14
F-0.51790652368307422
sg15
S'y'
sg16
g2
(g3
g4
NtRp3025
(dp3026
g7
g2
(g3
g4
NtRp3027
(dp3028
g7
g2
(g3
g4
NtRp3029
(dp3030
g7
g2
(g3
g4
NtRp3031
(dp3032
g7
g2
(g10
g4
NtRp3033
(dp3034
g13
F1
sbsg14
F-0.36359075777183625
sg15
S'y'
sg16
g2
(g10
g4
NtRp3035
(dp3036
g13
F0.75
sbsbsg14
F-0.33364912597397067
sg15
S'y'
sg16
g2
(g10
g4
NtRp3037
(dp3038
g13
F0
sbsbsg14
F-0.31748839152106711
sg15
S'y'
sg16
g2
(g3
g4
NtRp3039
(dp3040
g7
g2
(g10
g4
NtRp3041
(dp3042
g13
F1
sbsg14
F0.052171813952389456
sg15
S'y'
sg16
g2
(g3
g4
NtRp3043
(dp3044
g7
g2
(g10
g4
NtRp3045
(dp3046
g13
F1
sbsg14
F0.024683192215477323
sg15
S'x'
sg16
g2
(g10
g4
NtRp3047
(dp3048
g13
F0
sbsbsbsbsg14
F0.22022344640722391
sg15
S'y'
sg16
g2
(g10
g4
NtRp3049
(dp3050
g13
F0.66666666666666663
sbsbsbsbsbsg14
F0.29455481060953836
sg15
S'y'
sg16
g2
(g3
g4
NtRp3051
(dp3052
g7
g2
(g3
g4
NtRp3053
(dp3054
g7
g2
(g3
g4
NtRp3055
(dp3056
g7
g2
(g10
g4
NtRp3057
(dp3058
g13
F0
sbsg14
F-0.43122350203900917
sg15
S'x'
sg16
g2
(g3
g4
NtRp3059
(dp3060
g7
g2
(g10
g4
NtRp3061
(dp3062
g13
F1
sbsg14
F-0.21041961511052865
sg15
S'x'
sg16
g2
(g10
g4
NtRp3063
(dp3064
g13
F0.33333333333333331
sbsbsbsg14
F0.45507281866429006
sg15
S'y'
sg16
g2
(g10
g4
NtRp3065
(dp3066
g13
F0
sbsbsg14
F0.58872239255359338
sg15
S'y'
sg16
g2
(g10
g4
NtRp3067
(dp3068
g13
F0
sbsbsbsg14
F0.30912915540908248
sg15
S'x'
sg16
g2
(g3
g4
NtRp3069
(dp3070
g7
g2
(g3
g4
NtRp3071
(dp3072
g7
g2
(g3
g4
NtRp3073
(dp3074
g7
g2
(g10
g4
NtRp3075
(dp3076
g13
F0
sbsg14
F-0.27862477715362521
sg15
S'y'
sg16
g2
(g3
g4
NtRp3077
(dp3078
g7
g2
(g10
g4
NtRp3079
(dp3080
g13
F1
sbsg14
F-0.26623522278699951
sg15
S'y'
sg16
g2
(g10
g4
NtRp3081
(dp3082
g13
F0
sbsbsbsg14
F-0.14978027531054394
sg15
S'y'
sg16
g2
(g10
g4
NtRp3083
(dp3084
g13
F0.33333333333333331
sbsbsg14
F-0.13644352309723518
sg15
S'y'
sg16
g2
(g10
g4
NtRp3085
(dp3086
g13
F0
sbsbsbsbag2
(g3
g4
NtRp3087
(dp3088
g7
g2
(g3
g4
NtRp3089
(dp3090
g7
g2
(g3
g4
NtRp3091
(dp3092
g7
g2
(g3
g4
NtRp3093
(dp3094
g7
g2
(g3
g4
NtRp3095
(dp3096
g7
g2
(g10
g4
NtRp3097
(dp3098
g13
F0
sbsg14
F-0.52863766836348347
sg15
S'y'
sg16
g2
(g3
g4
NtRp3099
(dp3100
g7
g2
(g3
g4
NtRp3101
(dp3102
g7
g2
(g3
g4
NtRp3103
(dp3104
g7
g2
(g3
g4
NtRp3105
(dp3106
g7
g2
(g10
g4
NtRp3107
(dp3108
g13
F0
sbsg14
F-0.50058160477612068
sg15
S'y'
sg16
g2
(g3
g4
NtRp3109
(dp3110
g7
g2
(g10
g4
NtRp3111
(dp3112
g13
F1
sbsg14
F-0.33193425809192334
sg15
S'y'
sg16
g2
(g10
g4
NtRp3113
(dp3114
g13
F0.5
sbsbsbsg14
F-0.2455678552169398
sg15
S'y'
sg16
g2
(g10
g4
NtRp3115
(dp3116
g13
F0
sbsbsg14
F-0.2387787081211985
sg15
S'y'
sg16
g2
(g10
g4
NtRp3117
(dp3118
g13
F1
sbsbsg14
F-0.18459209796258991
sg15
S'y'
sg16
g2
(g10
g4
NtRp3119
(dp3120
g13
F0
sbsbsbsg14
Nsg15
S'x'
sg16
g2
(g10
g4
NtRp3121
(dp3122
g13
F0
sbsbsg14
F-0.79478320154162851
sg15
S'x'
sg16
g2
(g3
g4
NtRp3123
(dp3124
g7
g2
(g3
g4
NtRp3125
(dp3126
g7
g2
(g3
g4
NtRp3127
(dp3128
g7
g2
(g10
g4
NtRp3129
(dp3130
g13
F0
sbsg14
F-0.94289670073290743
sg15
S'y'
sg16
g2
(g10
g4
NtRp3131
(dp3132
g13
F1
sbsbsg14
F-0.74582139851372764
sg15
S'x'
sg16
g2
(g3
g4
NtRp3133
(dp3134
g7
g2
(g10
g4
NtRp3135
(dp3136
g13
F0
sbsg14
F-0.31748839152106711
sg15
S'y'
sg16
g2
(g10
g4
NtRp3137
(dp3138
g13
F1
sbsbsbsg14
F0.16979807948822767
sg15
S'y'
sg16
g2
(g10
g4
NtRp3139
(dp3140
g13
F0
sbsbsbsg14
F-0.54450708372801282
sg15
S'x'
sg16
g2
(g3
g4
NtRp3141
(dp3142
g7
g2
(g3
g4
NtRp3143
(dp3144
g7
g2
(g3
g4
NtRp3145
(dp3146
g7
g2
(g3
g4
NtRp3147
(dp3148
g7
g2
(g10
g4
NtRp3149
(dp3150
g13
F0
sbsg14
F-0.71922239325992177
sg15
S'y'
sg16
g2
(g10
g4
NtRp3151
(dp3152
g13
F0.75
sbsbsg14
F-0.44954493657738315
sg15
S'x'
sg16
g2
(g3
g4
NtRp3153
(dp3154
g7
g2
(g10
g4
NtRp3155
(dp3156
g13
F1
sbsg14
F-0.44797111766092224
sg15
S'x'
sg16
g2
(g3
g4
NtRp3157
(dp3158
g7
g2
(g3
g4
NtRp3159
(dp3160
g7
g2
(g10
g4
NtRp3161
(dp3162
g13
F0
sbsg14
F-0.75596144678424171
sg15
S'y'
sg16
g2
(g3
g4
NtRp3163
(dp3164
g7
g2
(g3
g4
NtRp3165
(dp3166
g7
g2
(g10
g4
NtRp3167
(dp3168
g13
F0.33333333333333331
sbsg14
F-0.72243510821205259
sg15
S'y'
sg16
g2
(g10
g4
NtRp3169
(dp3170
g13
F1
sbsbsg14
F-0.18612778396679319
sg15
S'x'
sg16
g2
(g10
g4
NtRp3171
(dp3172
g13
F0
sbsbsbsg14
F-0.4639561329113242
sg15
S'y'
sg16
g2
(g3
g4
NtRp3173
(dp3174
g7
g2
(g3
g4
NtRp3175
(dp3176
g7
g2
(g10
g4
NtRp3177
(dp3178
g13
F1
sbsg14
F0.37547643267317943
sg15
S'y'
sg16
g2
(g10
g4
NtRp3179
(dp3180
g13
F0.33333333333333331
sbsbsg14
F0.2121238669701726
sg15
S'x'
sg16
g2
(g10
g4
NtRp3181
(dp3182
g13
F0
sbsbsbsbsbsg14
F0.50573687661442124
sg15
S'y'
sg16
g2
(g10
g4
NtRp3183
(dp3184
g13
F0
sbsbsg14
F0.22886164715005641
sg15
S'x'
sg16
g2
(g3
g4
NtRp3185
(dp3186
g7
g2
(g10
g4
NtRp3187
(dp3188
g13
F0
sbsg14
F-0.51792714617070201
sg15
S'y'
sg16
g2
(g3
g4
NtRp3189
(dp3190
g7
g2
(g10
g4
NtRp3191
(dp3192
g13
F1
sbsg14
F-0.14543972510357595
sg15
S'y'
sg16
g2
(g3
g4
NtRp3193
(dp3194
g7
g2
(g3
g4
NtRp3195
(dp3196
g7
g2
(g10
g4
NtRp3197
(dp3198
g13
F0
sbsg14
F0.25307026363990204
sg15
S'x'
sg16
g2
(g10
g4
NtRp3199
(dp3200
g13
F0.5
sbsbsg14
F0.26651798055091191
sg15
S'x'
sg16
g2
(g10
g4
NtRp3201
(dp3202
g13
F0
sbsbsbsbsbsbsg14
F0.49673904533913271
sg15
S'x'
sg16
g2
(g10
g4
NtRp3203
(dp3204
g13
F0
sbsbag2
(g3
g4
NtRp3205
(dp3206
g7
g2
(g3
g4
NtRp3207
(dp3208
g7
g2
(g3
g4
NtRp3209
(dp3210
g7
g2
(g10
g4
NtRp3211
(dp3212
g13
F0
sbsg14
F-0.42883004106130196
sg15
S'x'
sg16
g2
(g3
g4
NtRp3213
(dp3214
g7
g2
(g10
g4
NtRp3215
(dp3216
g13
F0
sbsg14
F-0.75596144678424171
sg15
S'y'
sg16
g2
(g10
g4
NtRp3217
(dp3218
g13
F0.25
sbsbsbsg14
F-0.63049426542349174
sg15
S'y'
sg16
g2
(g3
g4
NtRp3219
(dp3220
g7
g2
(g3
g4
NtRp3221
(dp3222
g7
g2
(g10
g4
NtRp3223
(dp3224
g13
F0
sbsg14
F-0.51790652368307422
sg15
S'y'
sg16
g2
(g3
g4
NtRp3225
(dp3226
g7
g2
(g3
g4
NtRp3227
(dp3228
g7
g2
(g3
g4
NtRp3229
(dp3230
g7
g2
(g3
g4
NtRp3231
(dp3232
g7
g2
(g3
g4
NtRp3233
(dp3234
g7
g2
(g3
g4
NtRp3235
(dp3236
g7
g2
(g3
g4
NtRp3237
(dp3238
g7
g2
(g10
g4
NtRp3239
(dp3240
g13
F0.5
sbsg14
F-0.31322227368403244
sg15
S'y'
sg16
g2
(g10
g4
NtRp3241
(dp3242
g13
F0
sbsbsg14
F-0.26789556201165698
sg15
S'y'
sg16
g2
(g10
g4
NtRp3243
(dp3244
g13
F1
sbsbsg14
F-0.2455678552169398
sg15
S'y'
sg16
g2
(g10
g4
NtRp3245
(dp3246
g13
F0
sbsbsg14
F-0.2387787081211985
sg15
S'y'
sg16
g2
(g10
g4
NtRp3247
(dp3248
g13
F1
sbsbsg14
F-0.18459209796258991
sg15
S'y'
sg16
g2
(g10
g4
NtRp3249
(dp3250
g13
F0
sbsbsg14
Nsg15
S'x'
sg16
g2
(g3
g4
NtRp3251
(dp3252
g7
g2
(g10
g4
NtRp3253
(dp3254
g13
F0
sbsg14
F-0.98959595132242884
sg15
S'x'
sg16
g2
(g10
g4
NtRp3255
(dp3256
g13
F0.33333333333333331
sbsbsbsg14
F-0.7844113536851447
sg15
S'x'
sg16
g2
(g3
g4
NtRp3257
(dp3258
g7
g2
(g3
g4
NtRp3259
(dp3260
g7
g2
(g3
g4
NtRp3261
(dp3262
g7
g2
(g10
g4
NtRp3263
(dp3264
g13
F0
sbsg14
F-0.70823563025416236
sg15
S'x'
sg16
g2
(g10
g4
NtRp3265
(dp3266
g13
F1
sbsbsg14
F-0.30804222440978313
sg15
S'y'
sg16
g2
(g3
g4
NtRp3267
(dp3268
g7
g2
(g10
g4
NtRp3269
(dp3270
g13
F1
sbsg14
F0.073757854074751439
sg15
S'y'
sg16
g2
(g3
g4
NtRp3271
(dp3272
g7
g2
(g10
g4
NtRp3273
(dp3274
g13
F0
sbsg14
F0.14053565166158855
sg15
S'y'
sg16
g2
(g10
g4
NtRp3275
(dp3276
g13
F1
sbsbsbsbsg14
F0.22022344640722391
sg15
S'y'
sg16
g2
(g3
g4
NtRp3277
(dp3278
g7
g2
(g10
g4
NtRp3279
(dp3280
g13
F1
sbsg14
F-0.02171456431480312
sg15
S'x'
sg16
g2
(g10
g4
NtRp3281
(dp3282
g13
F0
sbsbsbsbsbsg14
F0.32243428252871942
sg15
S'y'
sg16
g2
(g3
g4
NtRp3283
(dp3284
g7
g2
(g10
g4
NtRp3285
(dp3286
g13
F0
sbsg14
F-0.27749023609300538
sg15
S'x'
sg16
g2
(g3
g4
NtRp3287
(dp3288
g7
g2
(g10
g4
NtRp3289
(dp3290
g13
F0.5
sbsg14
F-0.26802057157969683
sg15
S'x'
sg16
g2
(g3
g4
NtRp3291
(dp3292
g7
g2
(g10
g4
NtRp3293
(dp3294
g13
F0.5
sbsg14
F0.37547643267317943
sg15
S'y'
sg16
g2
(g10
g4
NtRp3295
(dp3296
g13
F0
sbsbsbsbsbsbsg14
F0.39231982467609683
sg15
S'x'
sg16
g2
(g3
g4
NtRp3297
(dp3298
g7
g2
(g3
g4
NtRp3299
(dp3300
g7
g2
(g10
g4
NtRp3301
(dp3302
g13
F0.25
sbsg14
F-0.26623522278699951
sg15
S'y'
sg16
g2
(g10
g4
NtRp3303
(dp3304
g13
F0
sbsbsg14
F0.43918809043973184
sg15
S'x'
sg16
g2
(g10
g4
NtRp3305
(dp3306
g13
F0
sbsbsbag2
(g3
g4
NtRp3307
(dp3308
g7
g2
(g3
g4
NtRp3309
(dp3310
g7
g2
(g3
g4
NtRp3311
(dp3312
g7
g2
(g10
g4
NtRp3313
(dp3314
g13
F0
sbsg14
F-0.41608835587964244
sg15
S'x'
sg16
g2
(g3
g4
NtRp3315
(dp3316
g7
g2
(g10
g4
NtRp3317
(dp3318
g13
F0.25
sbsg14
F-0.38085223645410293
sg15
S'x'
sg16
g2
(g10
g4
NtRp3319
(dp3320
g13
F0
sbsbsbsg14
F-0.5464261295346331
sg15
S'y'
sg16
g2
(g3
g4
NtRp3321
(dp3322
g7
g2
(g3
g4
NtRp3323
(dp3324
g7
g2
(g3
g4
NtRp3325
(dp3326
g7
g2
(g3
g4
NtRp3327
(dp3328
g7
g2
(g10
g4
NtRp3329
(dp3330
g13
F0
sbsg14
F-0.50058160477612068
sg15
S'y'
sg16
g2
(g3
g4
NtRp3331
(dp3332
g7
g2
(g3
g4
NtRp3333
(dp3334
g7
g2
(g3
g4
NtRp3335
(dp3336
g7
g2
(g10
g4
NtRp3337
(dp3338
g13
F0.5
sbsg14
F-0.26789556201165698
sg15
S'y'
sg16
g2
(g10
g4
NtRp3339
(dp3340
g13
F1
sbsbsg14
F-0.2455678552169398
sg15
S'y'
sg16
g2
(g10
g4
NtRp3341
(dp3342
g13
F0
sbsbsg14
F-0.2387787081211985
sg15
S'y'
sg16
g2
(g10
g4
NtRp3343
(dp3344
g13
F1
sbsbsbsg14
F-0.18459209796258991
sg15
S'y'
sg16
g2
(g10
g4
NtRp3345
(dp3346
g13
F0
sbsbsg14
Nsg15
S'x'
sg16
g2
(g10
g4
NtRp3347
(dp3348
g13
F0
sbsbsg14
F-0.7975258023599614
sg15
S'x'
sg16
g2
(g3
g4
NtRp3349
(dp3350
g7
g2
(g3
g4
NtRp3351
(dp3352
g7
g2
(g3
g4
NtRp3353
(dp3354
g7
g2
(g3
g4
NtRp3355
(dp3356
g7
g2
(g10
g4
NtRp3357
(dp3358
g13
F0
sbsg14
F-0.31748839152106711
sg15
S'y'
sg16
g2
(g10
g4
NtRp3359
(dp3360
g13
F1
sbsbsg14
F-0.70823563025416236
sg15
S'x'
sg16
g2
(g3
g4
NtRp3361
(dp3362
g7
g2
(g3
g4
NtRp3363
(dp3364
g7
g2
(g10
g4
NtRp3365
(dp3366
g13
F1
sbsg14
F0.024683192215477323
sg15
S'x'
sg16
g2
(g3
g4
NtRp3367
(dp3368
g7
g2
(g10
g4
NtRp3369
(dp3370
g13
F0
sbsg14
F0.047660436684024976
sg15
S'x'
sg16
g2
(g10
g4
NtRp3371
(dp3372
g13
F1
sbsbsbsg14
F0.31921539511580521
sg15
S'y'
sg16
g2
(g10
g4
NtRp3373
(dp3374
g13
F0
sbsbsbsg14
F0.36770407941385663
sg15
S'y'
sg16
g2
(g3
g4
NtRp3375
(dp3376
g7
g2
(g10
g4
NtRp3377
(dp3378
g13
F0
sbsg14
F-0.27459090900817085
sg15
S'x'
sg16
g2
(g3
g4
NtRp3379
(dp3380
g7
g2
(g10
g4
NtRp3381
(dp3382
g13
F1
sbsg14
F-0.26802057157969683
sg15
S'x'
sg16
g2
(g3
g4
NtRp3383
(dp3384
g7
g2
(g10
g4
NtRp3385
(dp3386
g13
F0
sbsg14
F0.086466748921483649
sg15
S'x'
sg16
g2
(g3
g4
NtRp3387
(dp3388
g7
g2
(g10
g4
NtRp3389
(dp3390
g13
F0.5
sbsg14
F0.094933463639929272
sg15
S'x'
sg16
g2
(g10
g4
NtRp3391
(dp3392
g13
F0
sbsbsbsbsbsbsg14
F0.22196047951416764
sg15
S'x'
sg16
g2
(g3
g4
NtRp3393
(dp3394
g7
g2
(g3
g4
NtRp3395
(dp3396
g7
g2
(g3
g4
NtRp3397
(dp3398
g7
g2
(g10
g4
NtRp3399
(dp3400
g13
F0.75
sbsg14
F0.015472705653512886
sg15
S'y'
sg16
g2
(g10
g4
NtRp3401
(dp3402
g13
F0
sbsbsg14
F0.31039427635091554
sg15
S'x'
sg16
g2
(g10
g4
NtRp3403
(dp3404
g13
F1
sbsbsg14
F0.31073252241532057
sg15
S'x'
sg16
g2
(g3
g4
NtRp3405
(dp3406
g7
g2
(g10
g4
NtRp3407
(dp3408
g13
F0
sbsg14
F0.41881881722202285
sg15
S'x'
sg16
g2
(g10
g4
NtRp3409
(dp3410
g13
F0.33333333333333331
sbsbsbsbsbsbsg14
F0.43632183646952161
sg15
S'x'
sg16
g2
(g10
g4
NtRp3411
(dp3412
g13
F0
sbsbag2
(g3
g4
NtRp3413
(dp3414
g7
g2
(g3
g4
NtRp3415
(dp3416
g7
g2
(g3
g4
NtRp3417
(dp3418
g7
g2
(g10
g4
NtRp3419
(dp3420
g13
F0
sbsg14
F-0.45310945615532772
sg15
S'x'
sg16
g2
(g3
g4
NtRp3421
(dp3422
g7
g2
(g10
g4
NtRp3423
(dp3424
g13
F0
sbsg14
F-0.75596144678424171
sg15
S'y'
sg16
g2
(g10
g4
NtRp3425
(dp3426
g13
F1
sbsbsbsg14
F-0.32257439600306714
sg15
S'x'
sg16
g2
(g10
g4
NtRp3427
(dp3428
g13
F0
sbsbsg14
F-0.66970746502918566
sg15
S'y'
sg16
g2
(g3
g4
NtRp3429
(dp3430
g7
g2
(g3
g4
NtRp3431
(dp3432
g7
g2
(g3
g4
NtRp3433
(dp3434
g7
g2
(g10
g4
NtRp3435
(dp3436
g13
F0
sbsg14
F-0.51743682154159076
sg15
S'y'
sg16
g2
(g3
g4
NtRp3437
(dp3438
g7
g2
(g3
g4
NtRp3439
(dp3440
g7
g2
(g3
g4
NtRp3441
(dp3442
g7
g2
(g3
g4
NtRp3443
(dp3444
g7
g2
(g3
g4
NtRp3445
(dp3446
g7
g2
(g10
g4
NtRp3447
(dp3448
g13
F0
sbsg14
F-0.50058160477612068
sg15
S'y'
sg16
g2
(g3
g4
NtRp3449
(dp3450
g7
g2
(g3
g4
NtRp3451
(dp3452
g7
g2
(g3
g4
NtRp3453
(dp3454
g7
g2
(g10
g4
NtRp3455
(dp3456
g13
F0.5
sbsg14
F-0.26789556201165698
sg15
S'y'
sg16
g2
(g10
g4
NtRp3457
(dp3458
g13
F1
sbsbsg14
F-0.2455678552169398
sg15
S'y'
sg16
g2
(g10
g4
NtRp3459
(dp3460
g13
F0
sbsbsg14
F-0.2387787081211985
sg15
S'y'
sg16
g2
(g10
g4
NtRp3461
(dp3462
g13
F1
sbsbsbsg14
F-0.18459209796258991
sg15
S'y'
sg16
g2
(g10
g4
NtRp3463
(dp3464
g13
F0
sbsbsg14
Nsg15
S'x'
sg16
g2
(g10
g4
NtRp3465
(dp3466
g13
F0
sbsbsg14
F-0.87831504909186142
sg15
S'x'
sg16
g2
(g3
g4
NtRp3467
(dp3468
g7
g2
(g3
g4
NtRp3469
(dp3470
g7
g2
(g10
g4
NtRp3471
(dp3472
g13
F1
sbsg14
F-0.74582139851372764
sg15
S'x'
sg16
g2
(g10
g4
NtRp3473
(dp3474
g13
F0
sbsbsg14
F-0.70823563025416236
sg15
S'x'
sg16
g2
(g3
g4
NtRp3475
(dp3476
g7
g2
(g10
g4
NtRp3477
(dp3478
g13
F1
sbsg14
F-0.084660931869865674
sg15
S'y'
sg16
g2
(g3
g4
NtRp3479
(dp3480
g7
g2
(g10
g4
NtRp3481
(dp3482
g13
F1
sbsg14
F0.25399043319974535
sg15
S'x'
sg16
g2
(g10
g4
NtRp3483
(dp3484
g13
F0
sbsbsbsbsbsg14
F0.20256772147393232
sg15
S'y'
sg16
g2
(g3
g4
NtRp3485
(dp3486
g7
g2
(g10
g4
NtRp3487
(dp3488
g13
F0
sbsg14
F-1.026924584711308
sg15
S'x'
sg16
g2
(g3
g4
NtRp3489
(dp3490
g7
g2
(g10
g4
NtRp3491
(dp3492
g13
F0.5
sbsg14
F0.24359568111608132
sg15
S'y'
sg16
g2
(g10
g4
NtRp3493
(dp3494
g13
F1
sbsbsbsbsbsg14
F0.43611590117424015
sg15
S'x'
sg16
g2
(g10
g4
NtRp3495
(dp3496
g13
F0
sbsbsg14
F0.32483027858008295
sg15
S'y'
sg16
g2
(g3
g4
NtRp3497
(dp3498
g7
g2
(g3
g4
NtRp3499
(dp3500
g7
g2
(g3
g4
NtRp3501
(dp3502
g7
g2
(g10
g4
NtRp3503
(dp3504
g13
F0
sbsg14
F0.37288613751680666
sg15
S'y'
sg16
g2
(g3
g4
NtRp3505
(dp3506
g7
g2
(g10
g4
NtRp3507
(dp3508
g13
F1
sbsg14
F0.37547643267317943
sg15
S'y'
sg16
g2
(g3
g4
NtRp3509
(dp3510
g7
g2
(g10
g4
NtRp3511
(dp3512
g13
F0
sbsg14
F-0.43122350203900917
sg15
S'x'
sg16
g2
(g10
g4
NtRp3513
(dp3514
g13
F0.33333333333333331
sbsbsbsbsg14
F0.24425650704002466
sg15
S'x'
sg16
g2
(g10
g4
NtRp3515
(dp3516
g13
F0
sbsbsg14
F0.49331163806788947
sg15
S'y'
sg16
g2
(g10
g4
NtRp3517
(dp3518
g13
F0
sbsbsbsbag2
(g3
g4
NtRp3519
(dp3520
g7
g2
(g3
g4
NtRp3521
(dp3522
g7
g2
(g3
g4
NtRp3523
(dp3524
g7
g2
(g10
g4
NtRp3525
(dp3526
g13
F0
sbsg14
F-0.42883004106130196
sg15
S'x'
sg16
g2
(g3
g4
NtRp3527
(dp3528
g7
g2
(g3
g4
NtRp3529
(dp3530
g7
g2
(g3
g4
NtRp3531
(dp3532
g7
g2
(g10
g4
NtRp3533
(dp3534
g13
F0.25
sbsg14
F-0.38777710893655026
sg15
S'x'
sg16
g2
(g10
g4
NtRp3535
(dp3536
g13
F0
sbsbsg14
F-0.51790652368307422
sg15
S'y'
sg16
g2
(g10
g4
NtRp3537
(dp3538
g13
F1
sbsbsg14
F-0.50197163593519312
sg15
S'y'
sg16
g2
(g10
g4
NtRp3539
(dp3540
g13
F1
sbsbsbsg14
F-0.45816160635860204
sg15
S'y'
sg16
g2
(g3
g4
NtRp3541
(dp3542
g7
g2
(g3
g4
NtRp3543
(dp3544
g7
g2
(g3
g4
NtRp3545
(dp3546
g7
g2
(g3
g4
NtRp3547
(dp3548
g7
g2
(g3
g4
NtRp3549
(dp3550
g7
g2
(g3
g4
NtRp3551
(dp3552
g7
g2
(g3
g4
NtRp3553
(dp3554
g7
g2
(g10
g4
NtRp3555
(dp3556
g13
F1
sbsg14
F-0.33193425809192334
sg15
S'y'
sg16
g2
(g10
g4
NtRp3557
(dp3558
g13
F0.5
sbsbsg14
F-0.2455678552169398
sg15
S'y'
sg16
g2
(g10
g4
NtRp3559
(dp3560
g13
F0
sbsbsg14
F-0.2387787081211985
sg15
S'y'
sg16
g2
(g10
g4
NtRp3561
(dp3562
g13
F1
sbsbsg14
Nsg15
S'x'
sg16
g2
(g10
g4
NtRp3563
(dp3564
g13
F0
sbsbsg14
F-0.18459209796258991
sg15
S'y'
sg16
g2
(g10
g4
NtRp3565
(dp3566
g13
F0
sbsbsg14
F-0.97933253428985889
sg15
S'x'
sg16
g2
(g3
g4
NtRp3567
(dp3568
g7
g2
(g10
g4
NtRp3569
(dp3570
g13
F1
sbsg14
F-0.37689144390839235
sg15
S'y'
sg16
g2
(g3
g4
NtRp3571
(dp3572
g7
g2
(g10
g4
NtRp3573
(dp3574
g13
F0.5
sbsg14
F-0.34733818826529106
sg15
S'y'
sg16
g2
(g3
g4
NtRp3575
(dp3576
g7
g2
(g3
g4
NtRp3577
(dp3578
g7
g2
(g3
g4
NtRp3579
(dp3580
g7
g2
(g10
g4
NtRp3581
(dp3582
g13
F0
sbsg14
F-0.70823563025416236
sg15
S'x'
sg16
g2
(g10
g4
NtRp3583
(dp3584
g13
F1
sbsbsg14
F-0.17724866175518583
sg15
S'y'
sg16
g2
(g10
g4
NtRp3585
(dp3586
g13
F1
sbsbsg14
F0.25399043319974535
sg15
S'x'
sg16
g2
(g3
g4
NtRp3587
(dp3588
g7
g2
(g10
g4
NtRp3589
(dp3590
g13
F0
sbsg14
F0.28464525163668553
sg15
S'x'
sg16
g2
(g3
g4
NtRp3591
(dp3592
g7
g2
(g10
g4
NtRp3593
(dp3594
g13
F1
sbsg14
F-0.14543972510357595
sg15
S'y'
sg16
g2
(g10
g4
NtRp3595
(dp3596
g13
F0
sbsbsbsbsbsbsbsg14
F0.30444199660335558
sg15
S'y'
sg16
g2
(g3
g4
NtRp3597
(dp3598
g7
g2
(g10
g4
NtRp3599
(dp3600
g13
F0
sbsg14
F-0.27749023609300538
sg15
S'x'
sg16
g2
(g3
g4
NtRp3601
(dp3602
g7
g2
(g10
g4
NtRp3603
(dp3604
g13
F1
sbsg14
F0.31921539511580521
sg15
S'y'
sg16
g2
(g3
g4
NtRp3605
(dp3606
g7
g2
(g10
g4
NtRp3607
(dp3608
g13
F0.25
sbsg14
F-0.25151190766582765
sg15
S'x'
sg16
g2
(g3
g4
NtRp3609
(dp3610
g7
g2
(g3
g4
NtRp3611
(dp3612
g7
g2
(g10
g4
NtRp3613
(dp3614
g13
F1
sbsg14
F0.37547643267317943
sg15
S'y'
sg16
g2
(g10
g4
NtRp3615
(dp3616
g13
F0
sbsbsg14
F0.10474243123719962
sg15
S'x'
sg16
g2
(g10
g4
NtRp3617
(dp3618
g13
F0
sbsbsbsbsbsbsbsg14
F0.47395007152770008
sg15
S'x'
sg16
g2
(g10
g4
NtRp3619
(dp3620
g13
F0
sbsbag2
(g3
g4
NtRp3621
(dp3622
g7
g2
(g3
g4
NtRp3623
(dp3624
g7
g2
(g3
g4
NtRp3625
(dp3626
g7
g2
(g3
g4
NtRp3627
(dp3628
g7
g2
(g3
g4
NtRp3629
(dp3630
g7
g2
(g10
g4
NtRp3631
(dp3632
g13
F0
sbsg14
F-0.52863766836348347
sg15
S'y'
sg16
g2
(g3
g4
NtRp3633
(dp3634
g7
g2
(g3
g4
NtRp3635
(dp3636
g7
g2
(g10
g4
NtRp3637
(dp3638
g13
F0
sbsg14
F-0.50058160477612068
sg15
S'y'
sg16
g2
(g3
g4
NtRp3639
(dp3640
g7
g2
(g3
g4
NtRp3641
(dp3642
g7
g2
(g10
g4
NtRp3643
(dp3644
g13
F1
sbsg14
F-0.33193425809192334
sg15
S'y'
sg16
g2
(g3
g4
NtRp3645
(dp3646
g7
g2
(g10
g4
NtRp3647
(dp3648
g13
F0.5
sbsg14
F-0.2455678552169398
sg15
S'y'
sg16
g2
(g10
g4
NtRp3649
(dp3650
g13
F0
sbsbsbsg14
F-0.2387787081211985
sg15
S'y'
sg16
g2
(g10
g4
NtRp3651
(dp3652
g13
F1
sbsbsbsg14
F-0.18459209796258991
sg15
S'y'
sg16
g2
(g10
g4
NtRp3653
(dp3654
g13
F0
sbsbsbsg14
Nsg15
S'x'
sg16
g2
(g10
g4
NtRp3655
(dp3656
g13
F0
sbsbsg14
F-0.78580941099981771
sg15
S'x'
sg16
g2
(g3
g4
NtRp3657
(dp3658
g7
g2
(g3
g4
NtRp3659
(dp3660
g7
g2
(g3
g4
NtRp3661
(dp3662
g7
g2
(g10
g4
NtRp3663
(dp3664
g13
F0
sbsg14
F-1.2273913098513516
sg15
S'y'
sg16
g2
(g10
g4
NtRp3665
(dp3666
g13
F1
sbsbsg14
F-0.76835352674224611
sg15
S'x'
sg16
g2
(g3
g4
NtRp3667
(dp3668
g7
g2
(g3
g4
NtRp3669
(dp3670
g7
g2
(g10
g4
NtRp3671
(dp3672
g13
F0
sbsg14
F-0.31748839152106711
sg15
S'y'
sg16
g2
(g10
g4
NtRp3673
(dp3674
g13
F1
sbsbsg14
F-0.66372624378992828
sg15
S'x'
sg16
g2
(g3
g4
NtRp3675
(dp3676
g7
g2
(g10
g4
NtRp3677
(dp3678
g13
F0
sbsg14
F-0.70371872581783723
sg15
S'y'
sg16
g2
(g10
g4
NtRp3679
(dp3680
g13
F1
sbsbsbsbsg14
F-0.41601877981873692
sg15
S'x'
sg16
g2
(g3
g4
NtRp3681
(dp3682
g7
g2
(g3
g4
NtRp3683
(dp3684
g7
g2
(g3
g4
NtRp3685
(dp3686
g7
g2
(g10
g4
NtRp3687
(dp3688
g13
F0
sbsg14
F-0.74169687848698995
sg15
S'y'
sg16
g2
(g3
g4
NtRp3689
(dp3690
g7
g2
(g10
g4
NtRp3691
(dp3692
g13
F1
sbsg14
F-0.7317342781318299
sg15
S'y'
sg16
g2
(g10
g4
NtRp3693
(dp3694
g13
F0
sbsbsbsg14
F-0.51790652368307422
sg15
S'y'
sg16
g2
(g10
g4
NtRp3695
(dp3696
g13
F1
sbsbsg14
F-0.4639561329113242
sg15
S'y'
sg16
g2
(g3
g4
NtRp3697
(dp3698
g7
g2
(g10
g4
NtRp3699
(dp3700
g13
F1
sbsg14
F0.2121238669701726
sg15
S'x'
sg16
g2
(g3
g4
NtRp3701
(dp3702
g7
g2
(g10
g4
NtRp3703
(dp3704
g13
F1
sbsg14
F0.015472705653512886
sg15
S'y'
sg16
g2
(g10
g4
NtRp3705
(dp3706
g13
F0
sbsbsbsbsbsbsg14
F0.31073252241532057
sg15
S'x'
sg16
g2
(g3
g4
NtRp3707
(dp3708
g7
g2
(g10
g4
NtRp3709
(dp3710
g13
F0
sbsg14
F-0.36629349652061594
sg15
S'y'
sg16
g2
(g3
g4
NtRp3711
(dp3712
g7
g2
(g10
g4
NtRp3713
(dp3714
g13
F0.25
sbsg14
F0.44204083949701989
sg15
S'x'
sg16
g2
(g10
g4
NtRp3715
(dp3716
g13
F0
sbsbsbsbsg14
F0.37547643267317943
sg15
S'y'
sg16
g2
(g3
g4
NtRp3717
(dp3718
g7
g2
(g3
g4
NtRp3719
(dp3720
g7
g2
(g10
g4
NtRp3721
(dp3722
g13
F0
sbsg14
F0.45142647138793679
sg15
S'y'
sg16
g2
(g3
g4
NtRp3723
(dp3724
g7
g2
(g10
g4
NtRp3725
(dp3726
g13
F0.33333333333333331
sbsg14
F-0.26802057157969683
sg15
S'x'
sg16
g2
(g10
g4
NtRp3727
(dp3728
g13
F0
sbsbsbsg14
F0.49331163806788947
sg15
S'y'
sg16
g2
(g10
g4
NtRp3729
(dp3730
g13
F0
sbsbsba.
